
testrtos22.elf:     file format elf32-littlenios2
testrtos22.elf
architecture: nios2:r1, flags 0x00000112:
EXEC_P, HAS_SYMS, D_PAGED
start address 0x000401bc

Program Header:
    LOAD off    0x00001000 vaddr 0x00040000 paddr 0x00040000 align 2**12
         filesz 0x00000020 memsz 0x00000020 flags r-x
    LOAD off    0x00001020 vaddr 0x00040020 paddr 0x00040020 align 2**12
         filesz 0x00017d98 memsz 0x00017d98 flags r-x
    LOAD off    0x00018db8 vaddr 0x00057db8 paddr 0x0005993c align 2**12
         filesz 0x00001b84 memsz 0x00001b84 flags rw-
    LOAD off    0x0001b4c0 vaddr 0x0005b4c0 paddr 0x0005b4c0 align 2**12
         filesz 0x00000000 memsz 0x000073ec flags rw-

Sections:
Idx Name          Size      VMA       LMA       File off  Algn
  0 .entry        00000020  00040000  00040000  00001000  2**5
                  CONTENTS, ALLOC, LOAD, READONLY, CODE
  1 .exceptions   0000019c  00040020  00040020  00001020  2**2
                  CONTENTS, ALLOC, LOAD, READONLY, CODE
  2 .text         000176d4  000401bc  000401bc  000011bc  2**2
                  CONTENTS, ALLOC, LOAD, READONLY, CODE
  3 .rodata       00000528  00057890  00057890  00018890  2**2
                  CONTENTS, ALLOC, LOAD, READONLY, DATA
  4 .rwdata       00001b84  00057db8  0005993c  00018db8  2**2
                  CONTENTS, ALLOC, LOAD, DATA, SMALL_DATA
  5 .bss          000073ec  0005b4c0  0005b4c0  0001b4c0  2**2
                  ALLOC, SMALL_DATA
  6 .onchip_memory 00000000  000628ac  000628ac  0001a93c  2**0
                  CONTENTS
  7 .comment      00000023  00000000  00000000  0001a93c  2**0
                  CONTENTS, READONLY
  8 .debug_aranges 00000e28  00000000  00000000  0001a960  2**3
                  CONTENTS, READONLY, DEBUGGING
  9 .debug_info   0002cbf9  00000000  00000000  0001b788  2**0
                  CONTENTS, READONLY, DEBUGGING
 10 .debug_abbrev 0000a911  00000000  00000000  00048381  2**0
                  CONTENTS, READONLY, DEBUGGING
 11 .debug_line   0000d25f  00000000  00000000  00052c92  2**0
                  CONTENTS, READONLY, DEBUGGING
 12 .debug_frame  00003094  00000000  00000000  0005fef4  2**2
                  CONTENTS, READONLY, DEBUGGING
 13 .debug_str    00004290  00000000  00000000  00062f88  2**0
                  CONTENTS, READONLY, DEBUGGING
 14 .debug_loc    00016d3e  00000000  00000000  00067218  2**0
                  CONTENTS, READONLY, DEBUGGING
 15 .debug_alt_sim_info 00000020  00000000  00000000  0007df58  2**2
                  CONTENTS, READONLY, DEBUGGING
 16 .debug_ranges 00001368  00000000  00000000  0007df78  2**3
                  CONTENTS, READONLY, DEBUGGING
 17 .thread_model 00000006  00000000  00000000  00083cfd  2**0
                  CONTENTS, READONLY
 18 .cpu          0000000a  00000000  00000000  00083d03  2**0
                  CONTENTS, READONLY
 19 .qsys         00000001  00000000  00000000  00083d0d  2**0
                  CONTENTS, READONLY
 20 .simulation_enabled 00000001  00000000  00000000  00083d0e  2**0
                  CONTENTS, READONLY
 21 .sysid_hash   00000004  00000000  00000000  00083d0f  2**0
                  CONTENTS, READONLY
 22 .sysid_base   00000004  00000000  00000000  00083d13  2**0
                  CONTENTS, READONLY
 23 .sysid_time   00000004  00000000  00000000  00083d17  2**0
                  CONTENTS, READONLY
 24 .stderr_dev   00000009  00000000  00000000  00083d1b  2**0
                  CONTENTS, READONLY
 25 .stdin_dev    00000009  00000000  00000000  00083d24  2**0
                  CONTENTS, READONLY
 26 .stdout_dev   00000009  00000000  00000000  00083d2d  2**0
                  CONTENTS, READONLY
 27 .sopc_system_name 00000008  00000000  00000000  00083d36  2**0
                  CONTENTS, READONLY
 28 .quartus_project_dir 00000022  00000000  00000000  00083d3e  2**0
                  CONTENTS, READONLY
 29 .jdi          00003e86  00000000  00000000  00083d60  2**0
                  CONTENTS, READONLY
 30 .sopcinfo     00044f68  00000000  00000000  00087be6  2**0
                  CONTENTS, READONLY
SYMBOL TABLE:
00040000 l    d  .entry	00000000 .entry
00040020 l    d  .exceptions	00000000 .exceptions
000401bc l    d  .text	00000000 .text
00057890 l    d  .rodata	00000000 .rodata
00057db8 l    d  .rwdata	00000000 .rwdata
0005b4c0 l    d  .bss	00000000 .bss
000628ac l    d  .onchip_memory	00000000 .onchip_memory
00000000 l    d  .comment	00000000 .comment
00000000 l    d  .debug_aranges	00000000 .debug_aranges
00000000 l    d  .debug_info	00000000 .debug_info
00000000 l    d  .debug_abbrev	00000000 .debug_abbrev
00000000 l    d  .debug_line	00000000 .debug_line
00000000 l    d  .debug_frame	00000000 .debug_frame
00000000 l    d  .debug_str	00000000 .debug_str
00000000 l    d  .debug_loc	00000000 .debug_loc
00000000 l    d  .debug_alt_sim_info	00000000 .debug_alt_sim_info
00000000 l    d  .debug_ranges	00000000 .debug_ranges
00000000 l    df *ABS*	00000000 ../testrtos22_bsp//obj/HAL/src/crt0.o
000401f4 l       .text	00000000 alt_after_alt_main
00000000 l    df *ABS*	00000000 alt_exception_entry.o
00040094 l       .exceptions	00000000 alt_exception_unknown
00000000 l    df *ABS*	00000000 alt_irq_handler.c
00000000 l    df *ABS*	00000000 hello_ucosii.c
000401f8 l     F .text	000000c8 foursevensegDisplay
00057db8 l     O .rwdata	00000010 segments.2962
000402c0 l     F .text	00000078 foursevensegDisplayAnyNumber
00040338 l     F .text	00000030 readSwitchValue
0005b4c4 l     O .bss	00000004 compteur.2993
00000000 l    df *ABS*	00000000 lib2-divmod.c
00040604 l     F .text	0000006c udivmodsi4
00000000 l    df *ABS*	00000000 printf.c
00000000 l    df *ABS*	00000000 puts.c
00000000 l    df *ABS*	00000000 strlen.c
00000000 l    df *ABS*	00000000 vfprintf.c
000579e2 l     O .rodata	00000010 zeroes.4181
000579f2 l     O .rodata	00000010 blanks.4180
00000000 l    df *ABS*	00000000 wsetup.c
00000000 l    df *ABS*	00000000 dtoa.c
00042a4c l     F .text	00000200 quorem
00000000 l    df *ABS*	00000000 fflush.c
00000000 l    df *ABS*	00000000 findfp.c
000445cc l     F .text	00000008 __fp_lock
000445d4 l     F .text	00000008 __fp_unlock
000445e8 l     F .text	000001a0 __sinit.part.1
00000000 l    df *ABS*	00000000 mallocr.c
00000000 l    df *ABS*	00000000 fvwrite.c
00000000 l    df *ABS*	00000000 fwalk.c
00000000 l    df *ABS*	00000000 impure.c
00057dc8 l     O .rwdata	00000424 impure_data
00000000 l    df *ABS*	00000000 locale.c
0005820c l     O .rwdata	00000020 lc_ctype_charset
000581ec l     O .rwdata	00000020 lc_message_charset
0005822c l     O .rwdata	00000038 lconv
00000000 l    df *ABS*	00000000 makebuf.c
00000000 l    df *ABS*	00000000 mallocr.c
00000000 l    df *ABS*	00000000 memchr.c
00000000 l    df *ABS*	00000000 memcpy.c
00000000 l    df *ABS*	00000000 memmove.c
00000000 l    df *ABS*	00000000 memset.c
00000000 l    df *ABS*	00000000 mprec.c
00057a24 l     O .rodata	0000000c p05.2678
00000000 l    df *ABS*	00000000 mallocr.c
00000000 l    df *ABS*	00000000 s_fpclassify.c
00000000 l    df *ABS*	00000000 sbrkr.c
00000000 l    df *ABS*	00000000 stdio.c
00000000 l    df *ABS*	00000000 strcmp.c
00000000 l    df *ABS*	00000000 vfprintf.c
00047a48 l     F .text	000000fc __sprint_r.part.0
00057b58 l     O .rodata	00000010 blanks.4125
00057b48 l     O .rodata	00000010 zeroes.4126
00000000 l    df *ABS*	00000000 writer.c
00000000 l    df *ABS*	00000000 closer.c
00000000 l    df *ABS*	00000000 mallocr.c
00000000 l    df *ABS*	00000000 fclose.c
00000000 l    df *ABS*	00000000 fputwc.c
00000000 l    df *ABS*	00000000 fstatr.c
00000000 l    df *ABS*	00000000 int_errno.c
00000000 l    df *ABS*	00000000 isattyr.c
00000000 l    df *ABS*	00000000 lseekr.c
00000000 l    df *ABS*	00000000 readr.c
00000000 l    df *ABS*	00000000 wbuf.c
00000000 l    df *ABS*	00000000 wcrtomb.c
00000000 l    df *ABS*	00000000 wctomb_r.c
00000000 l    df *ABS*	00000000 libgcc2.c
00000000 l    df *ABS*	00000000 libgcc2.c
00000000 l    df *ABS*	00000000 adddf3.c
00000000 l    df *ABS*	00000000 divdf3.c
00000000 l    df *ABS*	00000000 eqdf2.c
00000000 l    df *ABS*	00000000 gedf2.c
00000000 l    df *ABS*	00000000 ledf2.c
00000000 l    df *ABS*	00000000 muldf3.c
00000000 l    df *ABS*	00000000 subdf3.c
00000000 l    df *ABS*	00000000 fixdfsi.c
00000000 l    df *ABS*	00000000 floatsidf.c
00000000 l    df *ABS*	00000000 floatunsidf.c
00000000 l    df *ABS*	00000000 libgcc2.c
00000000 l    df *ABS*	00000000 libgcc2.c
00000000 l    df *ABS*	00000000 alt_close.c
0004c964 l     F .text	00000050 alt_get_errno
00000000 l    df *ABS*	00000000 alt_dev.c
0004ca84 l     F .text	0000002c alt_dev_null_write
00000000 l    df *ABS*	00000000 alt_errno.c
00000000 l    df *ABS*	00000000 alt_fstat.c
0004cab0 l     F .text	00000050 alt_get_errno
00000000 l    df *ABS*	00000000 alt_isatty.c
0004cbb0 l     F .text	00000050 alt_get_errno
00000000 l    df *ABS*	00000000 alt_load.c
0004cca4 l     F .text	00000064 alt_load_section
00000000 l    df *ABS*	00000000 alt_lseek.c
0004cd88 l     F .text	00000050 alt_get_errno
00000000 l    df *ABS*	00000000 alt_main.c
00000000 l    df *ABS*	00000000 alt_read.c
0004cf80 l     F .text	00000050 alt_get_errno
00000000 l    df *ABS*	00000000 alt_release_fd.c
00000000 l    df *ABS*	00000000 alt_sbrk.c
000598b0 l     O .rwdata	00000004 heap_end
00000000 l    df *ABS*	00000000 alt_write.c
0004d1dc l     F .text	00000050 alt_get_errno
00000000 l    df *ABS*	00000000 os_cpu_c.c
00000014 l       *ABS*	00000000 OSTCBNext_OFFSET
00000032 l       *ABS*	00000000 OSTCBPrio_OFFSET
00000000 l       *ABS*	00000000 OSTCBStkPtr_OFFSET
00000000 l    df *ABS*	00000000 alt_env_lock.c
000598b4 l     O .rwdata	00000004 lockid
0005b4f4 l     O .bss	00000004 locks
00000000 l    df *ABS*	00000000 alt_malloc_lock.c
000598b8 l     O .rwdata	00000004 lockid
0005b4fc l     O .bss	00000004 locks
00000000 l    df *ABS*	00000000 os_core.c
0004eff0 l     F .text	00000044 OS_InitMisc
0004f034 l     F .text	00000068 OS_InitRdyList
0004f194 l     F .text	000000e0 OS_InitTCBList
0004ef14 l     F .text	000000dc OS_InitEventList
0004f09c l     F .text	0000007c OS_InitTaskIdle
0004f118 l     F .text	0000007c OS_InitTaskStat
0004f3f4 l     F .text	00000070 OS_SchedNew
00000000 l    df *ABS*	00000000 os_dbg.c
00000000 l    df *ABS*	00000000 os_flag.c
000511e8 l     F .text	00000110 OS_FlagTaskRdy
00050f40 l     F .text	000001c4 OS_FlagBlock
00000000 l    df *ABS*	00000000 os_mem.c
00000000 l    df *ABS*	00000000 os_q.c
00000000 l    df *ABS*	00000000 os_sem.c
00000000 l    df *ABS*	00000000 os_task.c
00000000 l    df *ABS*	00000000 os_time.c
00000000 l    df *ABS*	00000000 alt_sys_init.c
00055684 l     F .text	00000038 alt_dev_reg
00058814 l     O .rwdata	0000106c jtag_uart
00000000 l    df *ABS*	00000000 altera_avalon_jtag_uart_fd.c
00000000 l    df *ABS*	00000000 altera_avalon_jtag_uart_init.c
00055a00 l     F .text	000002a4 altera_avalon_jtag_uart_irq
00055ca4 l     F .text	00000110 altera_avalon_jtag_uart_timeout
00000000 l    df *ABS*	00000000 altera_avalon_jtag_uart_ioctl.c
00000000 l    df *ABS*	00000000 altera_avalon_jtag_uart_read.c
00000000 l    df *ABS*	00000000 altera_avalon_jtag_uart_write.c
00000000 l    df *ABS*	00000000 altera_avalon_timer_sc.c
0005647c l     F .text	00000074 alt_avalon_timer_sc_irq
00000000 l    df *ABS*	00000000 alt_alarm_start.c
00000000 l    df *ABS*	00000000 alt_dcache_flush_all.c
00000000 l    df *ABS*	00000000 alt_dev_llist_insert.c
000566d4 l     F .text	00000050 alt_get_errno
00000000 l    df *ABS*	00000000 alt_do_ctors.c
00000000 l    df *ABS*	00000000 alt_do_dtors.c
00000000 l    df *ABS*	00000000 alt_icache_flush_all.c
00000000 l    df *ABS*	00000000 alt_iic.c
00000000 l    df *ABS*	00000000 alt_iic_isr_register.c
00000000 l    df *ABS*	00000000 alt_io_redirect.c
00056b80 l     F .text	000000c0 alt_open_fd
00000000 l    df *ABS*	00000000 alt_irq_vars.c
00000000 l    df *ABS*	00000000 alt_open.c
00056cb8 l     F .text	00000050 alt_get_errno
00056d08 l     F .text	000000cc alt_file_locked
00000000 l    df *ABS*	00000000 alt_tick.c
00000000 l    df *ABS*	00000000 altera_nios2_qsys_irq.c
00000000 l    df *ABS*	00000000 os_cpu_a.o
00000040 l       *ABS*	00000000 OSCtxSw_SWITCH_PC
00000000 l    df *ABS*	00000000 alt_find_dev.c
00000000 l    df *ABS*	00000000 alt_find_file.c
00000000 l    df *ABS*	00000000 alt_get_fd.c
00000000 l    df *ABS*	00000000 alt_icache_flush.c
00000000 l    df *ABS*	00000000 atexit.c
00000000 l    df *ABS*	00000000 exit.c
00000000 l    df *ABS*	00000000 memcmp.c
00000000 l    df *ABS*	00000000 __atexit.c
00000000 l    df *ABS*	00000000 __call_atexit.c
00000000 l    df *ABS*	00000000 alt_exit.c
00047088 g     F .text	00000074 _mprec_log10
00059906 g     O .rwdata	00000002 OSTaskNameSize
00047174 g     F .text	0000008c __any_on
00049398 g     F .text	00000054 _isatty_r
00057a30 g     O .rodata	00000028 __mprec_tinytens
0004ceac g     F .text	000000d4 alt_main
00040798 g     F .text	000000b8 _puts_r
000627ac g     O .bss	00000100 alt_irq
000493ec g     F .text	0000005c _lseek_r
00051a4c g     F .text	000000d0 OS_MemInit
0005993c g       *ABS*	00000000 __flash_rwdata_start
00055620 g     F .text	00000064 OSTimeSet
0004b4cc g     F .text	00000084 .hidden __eqdf2
0004dc6c g     F .text	00000610 OSEventPendMulti
000628ac g       *ABS*	00000000 __alt_heap_start
0004d618 g     F .text	00000020 OSTaskCreateHook
0005b588 g     O .bss	00002000 task1_stk
0004075c g     F .text	0000003c printf
000598de g     O .rwdata	00000002 OSMboxEn
0004e2d0 g     F .text	0000007c OSIntEnter
00049614 g     F .text	0000009c _wcrtomb_r
00047940 g     F .text	0000005c __sseek
0004491c g     F .text	00000010 __sinit
000494a4 g     F .text	00000154 __swbuf_r
000598ee g     O .rwdata	00000002 OSQEn
00045394 g     F .text	0000007c _setlocale_r
00044788 g     F .text	00000064 __sfmoreglue
0004d940 g     F .text	000000d0 __malloc_unlock
0004d674 g     F .text	0000001c OSTaskStatHook
0005b504 g     O .bss	00000001 OSLockNesting
0005992c g     O .rwdata	00000002 OSDataSize
0005b505 g     O .bss	00000001 OSRunning
00045ff4 g     F .text	0000015c memmove
0004d690 g     F .text	0000001c OSInitHookBegin
00059924 g     O .rwdata	00000002 OSTmrSize
00044904 g     F .text	00000018 _cleanup
00046274 g     F .text	000000a8 _Balloc
0005b508 g     O .bss	00000004 OSIdleCtr
0004b550 g     F .text	000000e0 .hidden __gtdf2
00057194 g       .text	00000000 OSStartTsk
00000000  w      *UND*	00000000 __errno
0004f71c g     F .text	000002d4 OS_TCBInit
00040000 g     F .entry	0000001c __reset
0005992a g     O .rwdata	00000002 OSTmrWheelTblSize
00040020 g       *ABS*	00000000 __flash_exceptions_start
000598ca g     O .rwdata	00000002 OSEventSize
0005b50c g     O .bss	00000001 OSPrioHighRdy
00049340 g     F .text	00000058 _fstat_r
0004d638 g     F .text	00000020 OSTaskDelHook
0005b4e0 g     O .bss	00000004 errno
000478bc g     F .text	00000008 __seofread
00057174 g       .text	00000000 OSStartHighRdy
00053f30 g     F .text	000001ec OSTaskCreateExt
00050a8c g     F .text	00000068 OSFlagPendGetFlagsRdy
0005990a g     O .rwdata	00000002 OSTaskStatStkSize
0004fb7c g     F .text	00000308 OSFlagAccept
00052120 g     F .text	000000b8 OSQFlush
00051b1c g     F .text	00000140 OSQAccept
0005b4ec g     O .bss	00000004 alt_argv
00061880 g       *ABS*	00000000 _gp
00053d74 g     F .text	000001bc OSTaskCreate
00053834 g     F .text	00000540 OSTaskChangePrio
0005b500 g     O .bss	00000004 alt_heapsem
0004f9f0 g     F .text	0000018c OSDebugInit
0005411c g     F .text	000003e0 OSTaskDel
00058694 g     O .rwdata	00000180 alt_fd_list
0005f588 g     O .bss	00000370 OSFlagTbl
0004ed00 g     F .text	000000b4 OS_EventTaskRemove
000571b8 g     F .text	00000090 alt_find_dev
00045ebc g     F .text	00000138 memcpy
000598f4 g     O .rwdata	00000002 OSRdyTblSize
000445dc g     F .text	0000000c _cleanup_r
0004c78c g     F .text	000000d0 .hidden __floatsidf
00056c40 g     F .text	00000078 alt_io_redirect
0004b630 g     F .text	000000e0 .hidden __ltdf2
00057890 g       *ABS*	00000000 __DTOR_END__
00040850 g     F .text	00000014 puts
0004da10 g     F .text	00000120 OSEventNameGet
000598d8 g     O .rwdata	00000002 OSFlagMax
000477a0 g     F .text	00000074 __fpclassifyd
00046fe4 g     F .text	000000a4 __ratio
0004e34c g     F .text	000000f4 OSIntExit
00048eb8 g     F .text	00000024 __vfiprintf_internal
00059912 g     O .rwdata	00000002 OSTCBSize
0005b50d g     O .bss	00000001 OSPrioCur
00055f08 g     F .text	000002b4 altera_avalon_jtag_uart_read
00000000  w      *UND*	00000000 malloc
00040730 g     F .text	0000002c _printf_r
00040720 g     F .text	00000008 .hidden __udivsi3
0004cc00 g     F .text	000000a4 isatty
000598f8 g     O .rwdata	00000002 OSStkWidth
00057a80 g     O .rodata	000000c8 __mprec_tens
000598ec g     O .rwdata	00000002 OSPtrSize
00045410 g     F .text	0000000c __locale_charset
000598cc g     O .rwdata	00000002 OSEventTblSize
000570e8 g       .text	00000000 OSCtxSw
00057458 g     F .text	0000008c alt_icache_flush
0005b4dc g     O .bss	00000004 __malloc_top_pad
0005b510 g     O .bss	00000004 OSTCBList
0005b4e4 g     O .bss	00000004 alt_fd_list_lock
00059888 g     O .rwdata	00000004 __mb_cur_max
00045440 g     F .text	0000000c _localeconv_r
00046674 g     F .text	0000003c __i2b
00044d80 g     F .text	000004a4 __sfvwrite_r
0005f8f8 g     O .bss	00000c30 OSMemTbl
0005b514 g     O .bss	00000001 OSTickStepState
00047814 g     F .text	00000054 _sbrk_r
000598f0 g     O .rwdata	00000002 OSQMax
00060528 g     O .bss	00000800 OSTaskStatStk
0005167c g     F .text	000000f8 OSMemNameGet
000598d0 g     O .rwdata	00000002 OSFlagEn
00049448 g     F .text	0000005c _read_r
00059916 g     O .rwdata	00000002 OSTimeTickHookEn
00052640 g     F .text	00000168 OSQPost
000512f8 g     F .text	000000a0 OS_FlagUnlink
000598a8 g     O .rwdata	00000004 alt_max_fd
0004f2c4 g     F .text	00000064 OS_MemCopy
0004f328 g     F .text	000000cc OS_Sched
00049050 g     F .text	00000100 _fclose_r
0005158c g     F .text	000000f0 OSMemGet
000547fc g     F .text	000001c0 OSTaskNameSet
0004459c g     F .text	00000030 fflush
0005b4d8 g     O .bss	00000004 __malloc_max_sbrked_mem
0005b518 g     O .bss	00000004 OSCtxSwCtr
000405b4 g     F .text	00000050 OSTimeTickHook
000598da g     O .rwdata	00000002 OSFlagNameSize
0004edb4 g     F .text	000000fc OS_EventTaskRemoveMulti
0004a364 g     F .text	0000089c .hidden __adddf3
0004ebb4 g     F .text	0000014c OS_EventTaskWaitMulti
00046d8c g     F .text	0000011c __b2d
000598f2 g     O .rwdata	00000002 OSQSize
00049dd4 g     F .text	00000590 .hidden __umoddi3
0004cdd8 g     F .text	000000d4 lseek
00053144 g     F .text	00000268 OSSemPend
00059880 g     O .rwdata	00000004 _global_impure_ptr
00047200 g     F .text	000005a0 _realloc_r
000598dc g     O .rwdata	00000002 OSLowestPrio
000628ac g       *ABS*	00000000 __bss_end
00056a90 g     F .text	000000f0 alt_iic_isr_register
0004d6e4 g     F .text	00000020 OSTCBInitHook
00059922 g     O .rwdata	00000002 OSTmrCfgTicksPerSec
00056fc4 g     F .text	00000104 alt_tick
00049814 g     F .text	000005c0 .hidden __udivdi3
00049164 g     F .text	00000184 _fputwc_r
000598c4 g     O .rwdata	00000002 OSEventEn
00057a58 g     O .rodata	00000028 __mprec_bigtens
00046458 g     F .text	00000104 __s2b
0005991e g     O .rwdata	00000002 OSTmrCfgNameSize
0004c85c g     F .text	000000a4 .hidden __floatunsidf
00046b34 g     F .text	00000060 __mcmp
0004493c g     F .text	00000018 __fp_lock_all
00056a44 g     F .text	0000004c alt_ic_irq_enabled
00051104 g     F .text	000000e4 OS_FlagInit
00056f2c g     F .text	00000098 alt_alarm_stop
00059900 g     O .rwdata	00000002 OSTaskIdleStkSize
0005b554 g     O .bss	00000004 alt_irq_active
00052d2c g     F .text	000000b0 OSSemAccept
0005188c g     F .text	000000d8 OSMemPut
00051398 g     F .text	000001f4 OSMemCreate
0005b51c g     O .bss	00000004 OSIdleCtrMax
000400ec g     F .exceptions	000000d0 alt_irq_handler
0005866c g     O .rwdata	00000028 alt_dev_null
00059914 g     O .rwdata	00000002 OSTicksPerSec
000570e8 g       .text	00000000 OSIntCtxSw
000566b8 g     F .text	0000001c alt_dcache_flush_all
0004655c g     F .text	00000068 __hi0bits
0004c704 g     F .text	00000088 .hidden __fixdfsi
0005b520 g     O .bss	00000004 OSTCBFreeList
0005993c g       *ABS*	00000000 __ram_rwdata_end
000533ac g     F .text	0000016c OSSemPendAbort
00040000 g       *ABS*	00000000 __alt_mem_onchip_memory
000598a0 g     O .rwdata	00000008 alt_dev_list
0004d22c g     F .text	000000f8 write
00059918 g     O .rwdata	00000002 OSVersionNbr
00057db8 g       *ABS*	00000000 __ram_rodata_end
0004cb00 g     F .text	000000b0 fstat
0004b630 g     F .text	000000e0 .hidden __ledf2
000598c0 g     O .rwdata	00000004 OSEndiannessTest
000468ac g     F .text	00000140 __pow5mult
00047b5c g     F .text	0000135c ___vfiprintf_internal_r
0005b4d0 g     O .bss	00000004 __nlocale_changed
00040728 g     F .text	00000008 .hidden __umodsi3
000598d2 g     O .rwdata	00000002 OSFlagGrpSize
000628ac g       *ABS*	00000000 end
000558b4 g     F .text	0000014c altera_avalon_jtag_uart_init
0004f588 g     F .text	000000cc OS_TaskStat
00057890 g       *ABS*	00000000 __CTOR_LIST__
00070d40 g       *ABS*	00000000 __alt_stack_pointer
000564f0 g     F .text	00000088 alt_avalon_timer_sc_init
0004c900 g     F .text	00000064 .hidden __clzsi2
000561bc g     F .text	000002c0 altera_avalon_jtag_uart_write
0004492c g     F .text	00000004 __sfp_lock_acquire
00045dd4 g     F .text	000000e8 memchr
0004f274 g     F .text	00000050 OS_MemClr
000408fc g     F .text	00001ffc ___vfprintf_internal_r
0004d324 g     F .text	000002f4 OSTaskStkInit
00040368 g     F .text	000000a0 task1
00044a90 g     F .text	000002f0 _free_r
0004541c g     F .text	00000010 __locale_mb_cur_max
0004e910 g     F .text	00000198 OS_EventTaskRdy
000576c0 g     F .text	00000194 __call_exitprocs
0005b524 g     O .bss	00000001 OSCPUUsage
0005b4cc g     O .bss	00000004 __mlocale_changed
0005988c g     O .rwdata	00000004 __malloc_sbrk_base
000401bc g     F .text	0000003c _start
00040408 g     F .text	000000b4 task2
0005b558 g     O .bss	00000004 _alt_tick_rate
000521d8 g     F .text	000002fc OSQPend
00055128 g     F .text	00000148 OSTimeDly
000469ec g     F .text	00000148 __lshift
0005b55c g     O .bss	00000004 _alt_nticks
0004cfd0 g     F .text	000000fc read
000556f0 g     F .text	00000060 alt_sys_init
000575ac g     F .text	00000114 __register_exitproc
0005b525 g     O .bss	00000001 OSTaskCtr
00055270 g     F .text	0000015c OSTimeDlyHMSM
000466b0 g     F .text	000001fc __multiply
00055db4 g     F .text	00000068 altera_avalon_jtag_uart_close
00057db8 g       *ABS*	00000000 __ram_rwdata_start
00057890 g       *ABS*	00000000 __ram_rodata_start
0005b560 g     O .bss	00000028 __malloc_current_mallinfo
000598c6 g     O .rwdata	00000002 OSEventMax
00046ea8 g     F .text	0000013c __d2b
00053518 g     F .text	00000110 OSSemPost
0004e4c8 g     F .text	000000d8 OSSchedUnlock
00055750 g     F .text	00000060 altera_avalon_jtag_uart_read_fd
0005735c g     F .text	000000fc alt_get_fd
0005b528 g     O .bss	00000004 OSMemFreeList
0004e60c g     F .text	000000ac OSStatInit
00050e7c g     F .text	000000c4 OSFlagQuery
000598fc g     O .rwdata	00000002 OSTaskCreateExtEn
00048f38 g     F .text	00000054 _close_r
00057530 g     F .text	0000007c memcmp
0004e8f4 g     F .text	0000001c OS_Dummy
00055810 g     F .text	00000050 altera_avalon_jtag_uart_close_fd
000628ac g       *ABS*	00000000 __alt_stack_base
00055860 g     F .text	00000054 altera_avalon_jtag_uart_ioctl_fd
0004291c g     F .text	00000130 __swsetup_r
00060d28 g     O .bss	000001e0 OSQTbl
0004ac00 g     F .text	000008cc .hidden __divdf3
000447ec g     F .text	00000118 __sfp
000470fc g     F .text	00000078 __copybits
00058264 g     O .rwdata	00000408 __malloc_av_
00044938 g     F .text	00000004 __sinit_lock_release
0005b52c g     O .bss	00000004 OSTCBHighRdy
0004b710 g     F .text	00000724 .hidden __muldf3
00047868 g     F .text	00000054 __sread
0005b530 g     O .bss	00000004 OSQFreeList
00057248 g     F .text	00000114 alt_find_file
00056724 g     F .text	000000a4 alt_dev_llist_insert
0004d820 g     F .text	00000120 __malloc_lock
0004d12c g     F .text	000000b0 sbrk
0004db30 g     F .text	0000013c OSEventNameSet
00044374 g     F .text	00000228 _fflush_r
00048f8c g     F .text	000000c4 _calloc_r
0005b534 g     O .bss	00000001 OSRdyGrp
0005b4c0 g       *ABS*	00000000 __bss_start
00046150 g     F .text	00000124 memset
000404bc g     F .text	000000f8 main
0005b4f0 g     O .bss	00000004 alt_envp
0005b4d4 g     O .bss	00000004 __malloc_max_total_mem
000557b0 g     F .text	00000060 altera_avalon_jtag_uart_write_fd
000495f8 g     F .text	0000001c __swbuf
00057c88 g     O .rodata	00000100 OSUnMapTbl
000598f6 g     O .rwdata	00000002 OSSemEn
00050af4 g     F .text	00000388 OSFlagPost
0004799c g     F .text	00000008 __sclose
00070d40 g       *ABS*	00000000 __alt_heap_limit
00049150 g     F .text	00000014 fclose
0004eaa8 g     F .text	0000010c OS_EventTaskWait
0005d588 g     O .bss	00002000 task2_stk
0004f654 g     F .text	000000c8 OS_TaskStatStkChk
000544fc g     F .text	00000158 OSTaskDelReq
00042c4c g     F .text	00001728 _dtoa_r
0004562c g     F .text	000007a8 _malloc_r
00049788 g     F .text	00000030 __ascii_wctomb
000598ac g     O .rwdata	00000004 alt_errno
0004e5a0 g     F .text	0000006c OSStart
0004d7c4 g     F .text	0000005c __env_unlock
00045224 g     F .text	000000b8 _fwalk
000549bc g     F .text	000001f8 OSTaskResume
00051964 g     F .text	000000e8 OSMemQuery
00059908 g     O .rwdata	00000002 OSTaskStatEn
000598e2 g     O .rwdata	00000002 OSMemMax
000527a8 g     F .text	00000170 OSQPostFront
00040670 g     F .text	00000054 .hidden __divsi3
0005b535 g     O .bss	00000003 OSRdyTbl
000598bc g     O .rwdata	00000002 OSDebugEn
0004496c g     F .text	00000124 _malloc_trim_r
00057890 g       *ABS*	00000000 __CTOR_END__
000598d4 g     O .rwdata	00000002 OSFlagNodeSize
0005991c g     O .rwdata	00000002 OSTmrCfgMax
000479a4 g     F .text	000000a4 strcmp
00051c5c g     F .text	000001fc OSQCreate
00054654 g     F .text	000001a8 OSTaskNameGet
00057890 g       *ABS*	00000000 __flash_rodata_start
00052918 g     F .text	0000020c OSQPostOpt
0004e6b8 g     F .text	0000021c OSTimeTick
00059904 g     O .rwdata	00000002 OSTaskMax
00057890 g       *ABS*	00000000 __DTOR_LIST__
00052ddc g     F .text	00000100 OSSemCreate
00059928 g     O .rwdata	00000002 OSTmrWheelSize
0004b4cc g     F .text	00000084 .hidden __nedf2
000598fe g     O .rwdata	00000002 OSTaskDelEn
00053628 g     F .text	00000110 OSSemQuery
00051e58 g     F .text	000002c8 OSQDel
000524d4 g     F .text	0000016c OSQPendAbort
000556bc g     F .text	00000034 alt_irq_init
0004d0cc g     F .text	00000060 alt_release_fd
00057b68 g     O .rodata	00000100 .hidden __clz_tab
0005b4c8 g     O .bss	00000004 _PathLocale
000574e4 g     F .text	00000014 atexit
00048edc g     F .text	0000005c _write_r
0004e440 g     F .text	00000088 OSSchedLock
0004544c g     F .text	0000001c setlocale
0004fe84 g     F .text	00000128 OSFlagCreate
00059884 g     O .rwdata	00000004 _impure_ptr
0005b4e8 g     O .bss	00000004 alt_argc
00056824 g     F .text	0000005c _do_dtors
00045438 g     F .text	00000008 __locale_cjk_lang
000598ce g     O .rwdata	00000002 OSEventMultiEn
0004ffac g     F .text	00000270 OSFlagDel
0005b538 g     O .bss	00000004 OSEventFreeList
00040020 g       .exceptions	00000000 alt_irq_entry
00046d2c g     F .text	00000060 __ulp
0005049c g     F .text	000005f0 OSFlagPend
0005991a g     O .rwdata	00000002 OSTmrEn
00044954 g     F .text	00000018 __fp_unlock_all
00059898 g     O .rwdata	00000008 alt_fs_list
0004f464 g     F .text	00000074 OS_StrCopy
000598e4 g     O .rwdata	00000002 OSMemNameSize
0004d6ac g     F .text	0000001c OSInitHookEnd
00040020 g       *ABS*	00000000 __ram_exceptions_start
00059910 g     O .rwdata	00000002 OSTCBPrioTblMax
00045468 g     F .text	0000000c localeconv
0005990c g     O .rwdata	00000002 OSTaskStatStkChkEn
000568b0 g     F .text	00000050 alt_ic_isr_register
000598e0 g     O .rwdata	00000002 OSMemEn
000598ea g     O .rwdata	00000002 OSMutexEn
0005993c g       *ABS*	00000000 _edata
000628ac g       *ABS*	00000000 _end
0005b53c g     O .bss	00000001 OSIntNesting
000401bc g       *ABS*	00000000 __ram_exceptions_end
00055e1c g     F .text	000000ec altera_avalon_jtag_uart_ioctl
000553cc g     F .text	000001f0 OSTimeDlyResume
0005034c g     F .text	00000150 OSFlagNameSet
00054bb4 g     F .text	000001c8 OSTaskStkChk
000569a0 g     F .text	000000a4 alt_ic_irq_disable
000598e6 g     O .rwdata	00000002 OSMemSize
000478c4 g     F .text	0000007c __swrite
00059890 g     O .rwdata	00000004 __malloc_trim_threshold
0005b4c0 g     O .bss	00000004 time_sec
000570c8 g     F .text	00000020 altera_nios2_qsys_irq_init
0004542c g     F .text	0000000c __locale_msgcharset
0005b540 g     O .bss	00000004 OSTCBCur
000574f8 g     F .text	00000038 exit
000598e8 g     O .rwdata	00000002 OSMemTblSize
000452dc g     F .text	000000b8 _fwalk_reent
00046b94 g     F .text	00000198 __mdiff
000406c4 g     F .text	0000005c .hidden __modsi3
00070d40 g       *ABS*	00000000 __alt_data_end
00040020 g     F .exceptions	00000000 alt_exception
00044930 g     F .text	00000004 __sfp_lock_release
0004e27c g     F .text	00000054 OSInit
00054f90 g     F .text	0000012c OSTaskQuery
00052c80 g     F .text	000000ac OS_QInit
0004f4d8 g     F .text	00000054 OS_StrLen
00051774 g     F .text	00000118 OSMemNameSet
00059902 g     O .rwdata	00000002 OSTaskProfileEn
0005b544 g     O .bss	00000004 OSTime
00060f08 g     O .bss	00000800 OSTaskIdleStk
00057854 g     F .text	0000003c _exit
00056578 g     F .text	00000140 alt_alarm_start
0005021c g     F .text	00000130 OSFlagNameGet
000555bc g     F .text	00000064 OSTimeGet
00045474 g     F .text	000001b8 __smakebuf_r
00040864 g     F .text	00000098 strlen
00056dd4 g     F .text	00000158 open
0004d658 g     F .text	0000001c OSTaskSwHook
00061708 g     O .bss	00000b40 OSEventTbl
0004b550 g     F .text	000000e0 .hidden __gedf2
00062248 g     O .bss	00000510 OSTCBTbl
00053738 g     F .text	000000fc OSSemSet
00059894 g     O .rwdata	00000004 __wctomb
00047b44 g     F .text	00000018 __sprint_r
00056880 g     F .text	00000030 alt_icache_flush_all
00059930 g     O .rwdata	00000004 alt_priority_mask
00052edc g     F .text	00000268 OSSemDel
0005b548 g     O .bss	00000004 OSFlagFreeList
00056900 g     F .text	000000a0 alt_ic_irq_enable
000598c8 g     O .rwdata	00000002 OSEventNameSize
000428f8 g     F .text	00000024 __vfprintf_internal
0005b54c g     O .bss	00000001 OSStatRdy
00062758 g     O .bss	00000054 OSTCBPrioTbl
000497b8 g     F .text	0000005c _wctomb_r
0004d704 g     F .text	000000c0 __env_lock
0005990e g     O .rwdata	00000002 OSTaskSwHookEn
0004be34 g     F .text	000008d0 .hidden __subdf3
000465c4 g     F .text	000000b0 __lo0bits
00059934 g     O .rwdata	00000008 alt_alarm_list
000598d6 g     O .rwdata	00000002 OSFlagWidth
000567c8 g     F .text	0000005c _do_ctors
000496b0 g     F .text	000000d8 wcrtomb
0004c9b4 g     F .text	000000d0 close
0005b4f8 g     O .bss	00000004 alt_envsem
0005b550 g     O .bss	00000004 OSIdleCtrRun
0004e8d4 g     F .text	00000020 OSVersion
00059920 g     O .rwdata	00000002 OSTmrCfgWheelSize
0004cd08 g     F .text	00000080 alt_load
000550bc g     F .text	0000006c OS_TaskStkClr
000598fa g     O .rwdata	00000002 OSTaskCreateEn
0004eeb0 g     F .text	00000064 OS_EventWaitListInit
000492e8 g     F .text	00000058 fputwc
0004d6c8 g     F .text	0000001c OSTaskIdleHook
00000000  w      *UND*	00000000 free
00044934 g     F .text	00000004 __sinit_lock_acquire
00046344 g     F .text	00000114 __multadd
00054d7c g     F .text	00000214 OSTaskSuspend
0004631c g     F .text	00000028 _Bfree
0004f52c g     F .text	0000005c OS_TaskIdle
00059926 g     O .rwdata	00000002 OSTmrTblSize
00052b24 g     F .text	0000015c OSQQuery



Disassembly of section .entry:

00040000 <__reset>:
#if NIOS2_ICACHE_SIZE > 0 && defined(ALT_ALLOW_CODE_AT_RESET) && !defined(ALT_SIM_OPTIMIZE)
    /* Assume the instruction cache size is always a power of two. */
#if NIOS2_ICACHE_SIZE > 0x8000
    movhi r2, %hi(NIOS2_ICACHE_SIZE)
#else
    movui r2, NIOS2_ICACHE_SIZE
   40000:	00880014 	movui	r2,8192
#endif

0:
    initi r2
   40004:	1001483a 	initi	r2
    addi r2, r2, -NIOS2_ICACHE_LINE_SIZE
   40008:	10bff804 	addi	r2,r2,-32
    bgt r2, zero, 0b
   4000c:	00bffd16 	blt	zero,r2,40004 <__alt_data_end+0xfffcf2c4>
 * Jump to the _start entry point in the .text section if reset code
 * is allowed or if optimizing for RTL simulation.
 */
#if defined(ALT_ALLOW_CODE_AT_RESET) || defined(ALT_SIM_OPTIMIZE)
    /* Jump to the _start entry point in the .text section. */
    movhi r1, %hi(_start)
   40010:	00400134 	movhi	at,4
    ori r1, r1, %lo(_start)
   40014:	08406f14 	ori	at,at,444
    jmp r1
   40018:	0800683a 	jmp	at
   4001c:	00000000 	call	0 <OSTCBStkPtr_OFFSET>

Disassembly of section .exceptions:

00040020 <alt_exception>:

#else /* ALT_EXCEPTION_STACK disabled */
        /* 
         * Reserve space on normal stack for registers about to be pushed.
         */
        addi  sp, sp, -76
   40020:	deffed04 	addi	sp,sp,-76
         * documentation for details).
         *
         * Leave a gap in the stack frame at 4(sp) for the muldiv handler to
         * store zero into.
         */
        stw   ra,  0(sp)
   40024:	dfc00015 	stw	ra,0(sp)
        stw   r1,   8(sp)
   40028:	d8400215 	stw	at,8(sp)
        stw   r2,  12(sp)
   4002c:	d8800315 	stw	r2,12(sp)
        stw   r3,  16(sp)
   40030:	d8c00415 	stw	r3,16(sp)
        stw   r4,  20(sp)
   40034:	d9000515 	stw	r4,20(sp)
        stw   r5,  24(sp)
   40038:	d9400615 	stw	r5,24(sp)
        stw   r6,  28(sp)
   4003c:	d9800715 	stw	r6,28(sp)
        stw   r7,  32(sp)
   40040:	d9c00815 	stw	r7,32(sp)
        rdctl r5, estatus   /* Read early to avoid usage stall */
   40044:	000b307a 	rdctl	r5,estatus
        stw   r8,  36(sp)
   40048:	da000915 	stw	r8,36(sp)
        stw   r9,  40(sp)
   4004c:	da400a15 	stw	r9,40(sp)
        stw   r10, 44(sp)
   40050:	da800b15 	stw	r10,44(sp)
        stw   r11, 48(sp)
   40054:	dac00c15 	stw	r11,48(sp)
        stw   r12, 52(sp)
   40058:	db000d15 	stw	r12,52(sp)
        stw   r13, 56(sp)
   4005c:	db400e15 	stw	r13,56(sp)
        stw   r14, 60(sp)
   40060:	db800f15 	stw	r14,60(sp)
        stw   r15, 64(sp)
   40064:	dbc01015 	stw	r15,64(sp)
        /*
         * ea-4 contains the address of the instruction being executed
         * when the exception occured. For interrupt exceptions, we will
         * will be re-issue the isntruction. Store it in 72(sp)
         */
        stw   r5,  68(sp)  /* estatus */
   40068:	d9401115 	stw	r5,68(sp)
        addi  r15, ea, -4  /* instruction that caused exception */
   4006c:	ebffff04 	addi	r15,ea,-4
        stw   r15,  72(sp)
   40070:	dbc01215 	stw	r15,72(sp)
#else
        /*
         * Test to see if the exception was a software exception or caused 
         * by an external interrupt, and vector accordingly.
         */
        rdctl r4, ipending
   40074:	0009313a 	rdctl	r4,ipending
        andi  r2, r5, 1
   40078:	2880004c 	andi	r2,r5,1
        beq   r2, zero, .Lnot_irq
   4007c:	10000326 	beq	r2,zero,4008c <alt_exception+0x6c>
        beq   r4, zero, .Lnot_irq
   40080:	20000226 	beq	r4,zero,4008c <alt_exception+0x6c>
        /*
         * Now that all necessary registers have been preserved, call 
         * alt_irq_handler() to process the interrupts.
         */

        call alt_irq_handler
   40084:	00400ec0 	call	400ec <alt_irq_handler>

        .section .exceptions.irqreturn, "xa"

        br    .Lexception_exit
   40088:	00000306 	br	40098 <alt_exception_unknown+0x4>
         * upon completion, so we write ea (address of instruction *after*
         * the one where the exception occured) into 72(sp). The actual
         * instruction that caused the exception is written in r2, which these
         * handlers will utilize.
         */
        stw   ea,  72(sp)  /* Don't re-issue */
   4008c:	df401215 	stw	ea,72(sp)
        ldw   r2, -4(ea)   /* Instruction that caused exception */
   40090:	e8bfff17 	ldw	r2,-4(ea)

00040094 <alt_exception_unknown>:
#ifdef NIOS2_HAS_DEBUG_STUB
       /*
        *  Either tell the user now (if there is a debugger attached) or go into
        *  the debug monitor which will loop until a debugger is attached.
        */
        break
   40094:	003da03a 	break	0
        /* 
         * Restore the saved registers, so that all general purpose registers 
         * have been restored to their state at the time the interrupt occured.
         */

        ldw   r5,  68(sp)
   40098:	d9401117 	ldw	r5,68(sp)
        ldw   ea,  72(sp)  /* This becomes the PC once eret is executed */
   4009c:	df401217 	ldw	ea,72(sp)
        ldw   ra,   0(sp)
   400a0:	dfc00017 	ldw	ra,0(sp)

        wrctl estatus, r5
   400a4:	2801707a 	wrctl	estatus,r5

        ldw   r1,   8(sp)
   400a8:	d8400217 	ldw	at,8(sp)
        ldw   r2,  12(sp)
   400ac:	d8800317 	ldw	r2,12(sp)
        ldw   r3,  16(sp)
   400b0:	d8c00417 	ldw	r3,16(sp)
        ldw   r4,  20(sp)
   400b4:	d9000517 	ldw	r4,20(sp)
        ldw   r5,  24(sp)
   400b8:	d9400617 	ldw	r5,24(sp)
        ldw   r6,  28(sp)
   400bc:	d9800717 	ldw	r6,28(sp)
        ldw   r7,  32(sp)
   400c0:	d9c00817 	ldw	r7,32(sp)

#if defined(ALT_EXCEPTION_STACK) && defined(ALT_STACK_CHECK)
        ldw   et, %gprel(alt_exception_old_stack_limit)(gp)
#endif

        ldw   r8,  36(sp)
   400c4:	da000917 	ldw	r8,36(sp)
        ldw   r9,  40(sp)
   400c8:	da400a17 	ldw	r9,40(sp)
        ldw   r10, 44(sp)
   400cc:	da800b17 	ldw	r10,44(sp)
        ldw   r11, 48(sp)
   400d0:	dac00c17 	ldw	r11,48(sp)
        ldw   r12, 52(sp)
   400d4:	db000d17 	ldw	r12,52(sp)
        ldw   r13, 56(sp)
   400d8:	db400e17 	ldw	r13,56(sp)
        ldw   r14, 60(sp)
   400dc:	db800f17 	ldw	r14,60(sp)
        ldw   r15, 64(sp)
   400e0:	dbc01017 	ldw	r15,64(sp)
        stw   et, %gprel(alt_stack_limit_value)(gp)
        stw   zero, %gprel(alt_exception_old_stack_limit)(gp)
#endif /* ALT_STACK_CHECK */
        ldw   sp,  76(sp)
#else /* ALT_EXCEPTION_STACK disabled */
        addi  sp, sp, 76
   400e4:	dec01304 	addi	sp,sp,76

        /*
         * Return to the interrupted instruction.
         */

        eret
   400e8:	ef80083a 	eret

000400ec <alt_irq_handler>:
 * instruction is present if the macro ALT_CI_INTERRUPT_VECTOR defined.
 */

void alt_irq_handler (void) __attribute__ ((section (".exceptions")));
void alt_irq_handler (void)
{
   400ec:	defff904 	addi	sp,sp,-28
   400f0:	dfc00615 	stw	ra,24(sp)
   400f4:	df000515 	stw	fp,20(sp)
   400f8:	df000504 	addi	fp,sp,20
  
  /*
   * Notify the operating system that we are at interrupt level.
   */ 
  
  ALT_OS_INT_ENTER();
   400fc:	004e2d00 	call	4e2d0 <OSIntEnter>
#ifndef NIOS2_EIC_PRESENT
static ALT_INLINE alt_u32 ALT_ALWAYS_INLINE alt_irq_pending (void)
{
  alt_u32 active;

  NIOS2_READ_IPENDING (active);
   40100:	0005313a 	rdctl	r2,ipending
   40104:	e0bffe15 	stw	r2,-8(fp)

  return active;
   40108:	e0bffe17 	ldw	r2,-8(fp)
   * Consider the case where the high priority interupt is asserted during
   * the interrupt entry sequence for a lower priority interrupt to see why
   * this is the case.
   */

  active = alt_irq_pending ();
   4010c:	e0bffb15 	stw	r2,-20(fp)

  do
  {
    i = 0;
   40110:	e03ffd15 	stw	zero,-12(fp)
    mask = 1;
   40114:	00800044 	movi	r2,1
   40118:	e0bffc15 	stw	r2,-16(fp)
     * called to clear the interrupt condition.
     */

    do
    {
      if (active & mask)
   4011c:	e0fffb17 	ldw	r3,-20(fp)
   40120:	e0bffc17 	ldw	r2,-16(fp)
   40124:	1884703a 	and	r2,r3,r2
   40128:	10001426 	beq	r2,zero,4017c <alt_irq_handler+0x90>
      { 
#ifdef ALT_ENHANCED_INTERRUPT_API_PRESENT
        alt_irq[i].handler(alt_irq[i].context); 
   4012c:	008001b4 	movhi	r2,6
   40130:	1089eb04 	addi	r2,r2,10156
   40134:	e0fffd17 	ldw	r3,-12(fp)
   40138:	180690fa 	slli	r3,r3,3
   4013c:	10c5883a 	add	r2,r2,r3
   40140:	10c00017 	ldw	r3,0(r2)
   40144:	008001b4 	movhi	r2,6
   40148:	1089eb04 	addi	r2,r2,10156
   4014c:	e13ffd17 	ldw	r4,-12(fp)
   40150:	200890fa 	slli	r4,r4,3
   40154:	1105883a 	add	r2,r2,r4
   40158:	10800104 	addi	r2,r2,4
   4015c:	10800017 	ldw	r2,0(r2)
   40160:	1009883a 	mov	r4,r2
   40164:	183ee83a 	callr	r3
#else
        alt_irq[i].handler(alt_irq[i].context, i); 
#endif
        break;
   40168:	0001883a 	nop
#ifndef NIOS2_EIC_PRESENT
static ALT_INLINE alt_u32 ALT_ALWAYS_INLINE alt_irq_pending (void)
{
  alt_u32 active;

  NIOS2_READ_IPENDING (active);
   4016c:	0005313a 	rdctl	r2,ipending
   40170:	e0bfff15 	stw	r2,-4(fp)

  return active;
   40174:	e0bfff17 	ldw	r2,-4(fp)
   40178:	00000706 	br	40198 <alt_irq_handler+0xac>
      }
      mask <<= 1;
   4017c:	e0bffc17 	ldw	r2,-16(fp)
   40180:	1085883a 	add	r2,r2,r2
   40184:	e0bffc15 	stw	r2,-16(fp)
      i++;
   40188:	e0bffd17 	ldw	r2,-12(fp)
   4018c:	10800044 	addi	r2,r2,1
   40190:	e0bffd15 	stw	r2,-12(fp)

    } while (1);
   40194:	003fe106 	br	4011c <__alt_data_end+0xfffcf3dc>

    active = alt_irq_pending ();
   40198:	e0bffb15 	stw	r2,-20(fp)
    
  } while (active);
   4019c:	e0bffb17 	ldw	r2,-20(fp)
   401a0:	103fdb1e 	bne	r2,zero,40110 <__alt_data_end+0xfffcf3d0>

  /*
   * Notify the operating system that interrupt processing is complete.
   */ 

  ALT_OS_INT_EXIT();
   401a4:	004e34c0 	call	4e34c <OSIntExit>
}
   401a8:	e037883a 	mov	sp,fp
   401ac:	dfc00117 	ldw	ra,4(sp)
   401b0:	df000017 	ldw	fp,0(sp)
   401b4:	dec00204 	addi	sp,sp,8
   401b8:	f800283a 	ret

Disassembly of section .text:

000401bc <_start>:

    /*
     * Now that the caches are initialized, set up the stack pointer and global pointer.
     * The values provided by the linker are assumed to be correctly aligned.
     */
    movhi sp, %hi(__alt_stack_pointer)
   401bc:	06c001f4 	movhi	sp,7
    ori sp, sp, %lo(__alt_stack_pointer)
   401c0:	dec35014 	ori	sp,sp,3392
    movhi gp, %hi(_gp)
   401c4:	068001b4 	movhi	gp,6
    ori gp, gp, %lo(_gp)
   401c8:	d6862014 	ori	gp,gp,6272
 */
#ifndef ALT_SIM_OPTIMIZE
    /* Log that the BSS is about to be cleared. */
    ALT_LOG_PUTS(alt_log_msg_bss)

    movhi r2, %hi(__bss_start)
   401cc:	00800174 	movhi	r2,5
    ori r2, r2, %lo(__bss_start)
   401d0:	10ad3014 	ori	r2,r2,46272

    movhi r3, %hi(__bss_end)
   401d4:	00c001b4 	movhi	r3,6
    ori r3, r3, %lo(__bss_end)
   401d8:	18ca2b14 	ori	r3,r3,10412

    beq r2, r3, 1f
   401dc:	10c00326 	beq	r2,r3,401ec <_start+0x30>

0:
    stw zero, (r2)
   401e0:	10000015 	stw	zero,0(r2)
    addi r2, r2, 4
   401e4:	10800104 	addi	r2,r2,4
    bltu r2, r3, 0b
   401e8:	10fffd36 	bltu	r2,r3,401e0 <__alt_data_end+0xfffcf4a0>
     * section aren't defined until alt_load() has been called).
     */
    mov   et, zero
#endif

    call alt_load
   401ec:	004cd080 	call	4cd08 <alt_load>

    /* Log that alt_main is about to be called. */
    ALT_LOG_PUTS(alt_log_msg_alt_main)

    /* Call the C entry point. It should never return. */
    call alt_main
   401f0:	004ceac0 	call	4ceac <alt_main>

000401f4 <alt_after_alt_main>:

    /* Wait in infinite loop in case alt_main does return. */
alt_after_alt_main:
    br alt_after_alt_main
   401f4:	003fff06 	br	401f4 <__alt_data_end+0xfffcf4b4>

000401f8 <foursevensegDisplay>:
INT32U time_sec = 0;
#define SEVEN_SEG_PIO_BASE 0x81020
#define SWITCH_PIO_BASE 0x81040
/*Senven segment display*/
static void foursevensegDisplay(int afficheurNumber1, int afficheurNumber2, int afficheurNumber3, int afficheurNumber4)
{
   401f8:	defffa04 	addi	sp,sp,-24
   401fc:	df000515 	stw	fp,20(sp)
   40200:	df000504 	addi	fp,sp,20
   40204:	e13ffc15 	stw	r4,-16(fp)
   40208:	e17ffd15 	stw	r5,-12(fp)
   4020c:	e1bffe15 	stw	r6,-8(fp)
   40210:	e1ffff15 	stw	r7,-4(fp)
    static alt_u8 segments[16] = {0x40, 0x79, 0x24, 0x30, 0x19, 0x12, 0x02, 0x78, 0x00, 0x10, 0x08, 0x03, 0x46, 0x21, 0x06, 0x0e};
    alt_u32 data = segments[afficheurNumber1 & 0xff] | (segments[afficheurNumber2 & 0xff] << 8) | (segments[afficheurNumber3 & 0xff] << 16) | (segments[afficheurNumber4 & 15] << 24);
   40214:	e0bffc17 	ldw	r2,-16(fp)
   40218:	10c03fcc 	andi	r3,r2,255
   4021c:	00800174 	movhi	r2,5
   40220:	109f6e04 	addi	r2,r2,32184
   40224:	10c5883a 	add	r2,r2,r3
   40228:	10800003 	ldbu	r2,0(r2)
   4022c:	10c03fcc 	andi	r3,r2,255
   40230:	e0bffd17 	ldw	r2,-12(fp)
   40234:	11003fcc 	andi	r4,r2,255
   40238:	00800174 	movhi	r2,5
   4023c:	109f6e04 	addi	r2,r2,32184
   40240:	1105883a 	add	r2,r2,r4
   40244:	10800003 	ldbu	r2,0(r2)
   40248:	10803fcc 	andi	r2,r2,255
   4024c:	1004923a 	slli	r2,r2,8
   40250:	1886b03a 	or	r3,r3,r2
   40254:	e0bffe17 	ldw	r2,-8(fp)
   40258:	11003fcc 	andi	r4,r2,255
   4025c:	00800174 	movhi	r2,5
   40260:	109f6e04 	addi	r2,r2,32184
   40264:	1105883a 	add	r2,r2,r4
   40268:	10800003 	ldbu	r2,0(r2)
   4026c:	10803fcc 	andi	r2,r2,255
   40270:	1004943a 	slli	r2,r2,16
   40274:	1886b03a 	or	r3,r3,r2
   40278:	e0bfff17 	ldw	r2,-4(fp)
   4027c:	110003cc 	andi	r4,r2,15
   40280:	00800174 	movhi	r2,5
   40284:	109f6e04 	addi	r2,r2,32184
   40288:	1105883a 	add	r2,r2,r4
   4028c:	10800003 	ldbu	r2,0(r2)
   40290:	10803fcc 	andi	r2,r2,255
   40294:	1004963a 	slli	r2,r2,24
   40298:	1884b03a 	or	r2,r3,r2
   4029c:	e0bffb15 	stw	r2,-20(fp)
    IOWR_ALTERA_AVALON_PIO_DATA(SEVEN_SEG_PIO_BASE, data);
   402a0:	e0fffb17 	ldw	r3,-20(fp)
   402a4:	00800234 	movhi	r2,8
   402a8:	10840804 	addi	r2,r2,4128
   402ac:	10c00035 	stwio	r3,0(r2)
}
   402b0:	e037883a 	mov	sp,fp
   402b4:	df000017 	ldw	fp,0(sp)
   402b8:	dec00104 	addi	sp,sp,4
   402bc:	f800283a 	ret

000402c0 <foursevensegDisplayAnyNumber>:
static void foursevensegDisplayAnyNumber(int number)
{
   402c0:	defff904 	addi	sp,sp,-28
   402c4:	dfc00615 	stw	ra,24(sp)
   402c8:	df000515 	stw	fp,20(sp)
   402cc:	df000504 	addi	fp,sp,20
   402d0:	e13fff15 	stw	r4,-4(fp)
    int afficheurNumber1 = (number / 10) % 10;
   402d4:	e0bfff17 	ldw	r2,-4(fp)
   402d8:	1009883a 	mov	r4,r2
   402dc:	01400284 	movi	r5,10
   402e0:	00406700 	call	40670 <__divsi3>
   402e4:	1009883a 	mov	r4,r2
   402e8:	01400284 	movi	r5,10
   402ec:	00406c40 	call	406c4 <__modsi3>
   402f0:	e0bffb15 	stw	r2,-20(fp)
    int afficheurNumber2 = number % 10;
   402f4:	e0bfff17 	ldw	r2,-4(fp)
   402f8:	1009883a 	mov	r4,r2
   402fc:	01400284 	movi	r5,10
   40300:	00406c40 	call	406c4 <__modsi3>
   40304:	e0bffc15 	stw	r2,-16(fp)
    int afficheurNumber3 = 0;
   40308:	e03ffd15 	stw	zero,-12(fp)
    int afficheurNumber4 = 0;
   4030c:	e03ffe15 	stw	zero,-8(fp)
    foursevensegDisplay(afficheurNumber1, afficheurNumber2, afficheurNumber3, afficheurNumber4);
   40310:	e13ffb17 	ldw	r4,-20(fp)
   40314:	e17ffc17 	ldw	r5,-16(fp)
   40318:	e1bffd17 	ldw	r6,-12(fp)
   4031c:	e1fffe17 	ldw	r7,-8(fp)
   40320:	00401f80 	call	401f8 <foursevensegDisplay>
}
   40324:	e037883a 	mov	sp,fp
   40328:	dfc00117 	ldw	ra,4(sp)
   4032c:	df000017 	ldw	fp,0(sp)
   40330:	dec00204 	addi	sp,sp,8
   40334:	f800283a 	ret

00040338 <readSwitchValue>:

/*Read the 4 switches value*/
static int readSwitchValue()
{
   40338:	defffe04 	addi	sp,sp,-8
   4033c:	df000115 	stw	fp,4(sp)
   40340:	df000104 	addi	fp,sp,4
    int switchValue = IORD_ALTERA_AVALON_PIO_DATA(SWITCH_PIO_BASE);
   40344:	00800234 	movhi	r2,8
   40348:	10841004 	addi	r2,r2,4160
   4034c:	10800037 	ldwio	r2,0(r2)
   40350:	e0bfff15 	stw	r2,-4(fp)
    return switchValue;
   40354:	e0bfff17 	ldw	r2,-4(fp)
}
   40358:	e037883a 	mov	sp,fp
   4035c:	df000017 	ldw	fp,0(sp)
   40360:	dec00104 	addi	sp,sp,4
   40364:	f800283a 	ret

00040368 <task1>:

/* Prints "Hello World" and sleeps for three seconds */
void task1(void *pdata)
{
   40368:	defffa04 	addi	sp,sp,-24
   4036c:	dfc00515 	stw	ra,20(sp)
   40370:	df000415 	stw	fp,16(sp)
   40374:	df000404 	addi	fp,sp,16
   40378:	e13fff15 	stw	r4,-4(fp)
    INT8U err;
    OS_STK_DATA taskstkcheckdata;

    // check the task satck check option
    err = OSTaskStkChk(TASK1_PRIORITY, &taskstkcheckdata);
   4037c:	e0bffd04 	addi	r2,fp,-12
   40380:	01000044 	movi	r4,1
   40384:	100b883a 	mov	r5,r2
   40388:	0054bb40 	call	54bb4 <OSTaskStkChk>
   4038c:	e0bffc05 	stb	r2,-16(fp)
    if (err == OS_ERR_NONE)
   40390:	e0bffc03 	ldbu	r2,-16(fp)
   40394:	10000b1e 	bne	r2,zero,403c4 <task1+0x5c>
    {
        printf("Task1 free stack size is %ld\n", taskstkcheckdata.OSFree);
   40398:	e0bffd17 	ldw	r2,-12(fp)
   4039c:	01000174 	movhi	r4,5
   403a0:	211e2404 	addi	r4,r4,30864
   403a4:	100b883a 	mov	r5,r2
   403a8:	004075c0 	call	4075c <printf>
        printf("Task1 used stack size is %ld\n", taskstkcheckdata.OSUsed);
   403ac:	e0bffe17 	ldw	r2,-8(fp)
   403b0:	01000174 	movhi	r4,5
   403b4:	211e2c04 	addi	r4,r4,30896
   403b8:	100b883a 	mov	r5,r2
   403bc:	004075c0 	call	4075c <printf>
   403c0:	00000506 	br	403d8 <task1+0x70>
    }
    else
    {
        printf("error code for task1 stack check is %d\n", err);
   403c4:	e0bffc03 	ldbu	r2,-16(fp)
   403c8:	01000174 	movhi	r4,5
   403cc:	211e3404 	addi	r4,r4,30928
   403d0:	100b883a 	mov	r5,r2
   403d4:	004075c0 	call	4075c <printf>
    }
    while (1)
    {
        printf("Hello from task1\n");
   403d8:	01000174 	movhi	r4,5
   403dc:	211e3e04 	addi	r4,r4,30968
   403e0:	00408500 	call	40850 <puts>
        foursevensegDisplayAnyNumber(time_sec);
   403e4:	d0a71017 	ldw	r2,-25536(gp)
   403e8:	1009883a 	mov	r4,r2
   403ec:	00402c00 	call	402c0 <foursevensegDisplayAnyNumber>
        OSTimeDlyHMSM(0, 0, 1, 0);
   403f0:	0009883a 	mov	r4,zero
   403f4:	000b883a 	mov	r5,zero
   403f8:	01800044 	movi	r6,1
   403fc:	000f883a 	mov	r7,zero
   40400:	00552700 	call	55270 <OSTimeDlyHMSM>
    }
   40404:	003ff406 	br	403d8 <__alt_data_end+0xfffcf698>

00040408 <task2>:
}
/* Prints "Hello World" and sleeps for three seconds */
void task2(void *pdata)
{
   40408:	defffa04 	addi	sp,sp,-24
   4040c:	dfc00515 	stw	ra,20(sp)
   40410:	df000415 	stw	fp,16(sp)
   40414:	df000404 	addi	fp,sp,16
   40418:	e13fff15 	stw	r4,-4(fp)
    INT8U err;
    OS_STK_DATA taskstkcheckdata2;
    err = OSTaskStkChk(TASK2_PRIORITY, &taskstkcheckdata2);
   4041c:	e0bffd04 	addi	r2,fp,-12
   40420:	01000084 	movi	r4,2
   40424:	100b883a 	mov	r5,r2
   40428:	0054bb40 	call	54bb4 <OSTaskStkChk>
   4042c:	e0bffc05 	stb	r2,-16(fp)
    if (err == OS_ERR_NONE)
   40430:	e0bffc03 	ldbu	r2,-16(fp)
   40434:	10000b1e 	bne	r2,zero,40464 <task2+0x5c>
    {
        printf("Task2 free stack size is %ld\n", taskstkcheckdata2.OSFree);
   40438:	e0bffd17 	ldw	r2,-12(fp)
   4043c:	01000174 	movhi	r4,5
   40440:	211e4304 	addi	r4,r4,30988
   40444:	100b883a 	mov	r5,r2
   40448:	004075c0 	call	4075c <printf>
        printf("Task2 used stack size is %ld\n", taskstkcheckdata2.OSUsed);
   4044c:	e0bffe17 	ldw	r2,-8(fp)
   40450:	01000174 	movhi	r4,5
   40454:	211e4b04 	addi	r4,r4,31020
   40458:	100b883a 	mov	r5,r2
   4045c:	004075c0 	call	4075c <printf>
   40460:	00000506 	br	40478 <task2+0x70>
    }
    else
    {
        printf("error code for task2 stack check is %d\n", err);
   40464:	e0bffc03 	ldbu	r2,-16(fp)
   40468:	01000174 	movhi	r4,5
   4046c:	211e5304 	addi	r4,r4,31052
   40470:	100b883a 	mov	r5,r2
   40474:	004075c0 	call	4075c <printf>
    }
    while (1)
    {
        INT8U switchValue = readSwitchValue();
   40478:	00403380 	call	40338 <readSwitchValue>
   4047c:	e0bffc45 	stb	r2,-15(fp)
        switchValue = switchValue << 4 | 0x0f;
   40480:	e0bffc43 	ldbu	r2,-15(fp)
   40484:	1004913a 	slli	r2,r2,4
   40488:	108003d4 	ori	r2,r2,15
   4048c:	e0bffc45 	stb	r2,-15(fp)
        printf("Switch value is %d\n", switchValue);
   40490:	e0bffc43 	ldbu	r2,-15(fp)
   40494:	01000174 	movhi	r4,5
   40498:	211e5d04 	addi	r4,r4,31092
   4049c:	100b883a 	mov	r5,r2
   404a0:	004075c0 	call	4075c <printf>
        OSTimeDlyHMSM(0, 0, 3, 0);
   404a4:	0009883a 	mov	r4,zero
   404a8:	000b883a 	mov	r5,zero
   404ac:	018000c4 	movi	r6,3
   404b0:	000f883a 	mov	r7,zero
   404b4:	00552700 	call	55270 <OSTimeDlyHMSM>
    }
   404b8:	003fef06 	br	40478 <__alt_data_end+0xfffcf738>

000404bc <main>:
}
/* The main function creates two task and starts multi-tasking */
int main(void)
{
   404bc:	defff904 	addi	sp,sp,-28
   404c0:	dfc00615 	stw	ra,24(sp)
   404c4:	df000515 	stw	fp,20(sp)
   404c8:	df000504 	addi	fp,sp,20
    printf("Hello from Nios II!\n");
   404cc:	01000174 	movhi	r4,5
   404d0:	211e6204 	addi	r4,r4,31112
   404d4:	00408500 	call	40850 <puts>
    OSTaskStkInit(task1, NULL, (void *)&task1_stk[TASK_STACKSIZE - 1], 0);
   404d8:	01000134 	movhi	r4,4
   404dc:	2100da04 	addi	r4,r4,872
   404e0:	000b883a 	mov	r5,zero
   404e4:	018001b4 	movhi	r6,6
   404e8:	31b56104 	addi	r6,r6,-10876
   404ec:	000f883a 	mov	r7,zero
   404f0:	004d3240 	call	4d324 <OSTaskStkInit>
    OSTaskCreateExt(task1,
   404f4:	00800044 	movi	r2,1
   404f8:	d8800015 	stw	r2,0(sp)
   404fc:	008001b4 	movhi	r2,6
   40500:	10ad6204 	addi	r2,r2,-19064
   40504:	d8800115 	stw	r2,4(sp)
   40508:	00820004 	movi	r2,2048
   4050c:	d8800215 	stw	r2,8(sp)
   40510:	d8000315 	stw	zero,12(sp)
   40514:	008000c4 	movi	r2,3
   40518:	d8800415 	stw	r2,16(sp)
   4051c:	01000134 	movhi	r4,4
   40520:	2100da04 	addi	r4,r4,872
   40524:	000b883a 	mov	r5,zero
   40528:	018001b4 	movhi	r6,6
   4052c:	31b56104 	addi	r6,r6,-10876
   40530:	01c00044 	movi	r7,1
   40534:	0053f300 	call	53f30 <OSTaskCreateExt>
                    task1_stk,
                    TASK_STACKSIZE,
                    NULL,
                    OS_TASK_OPT_STK_CHK | OS_TASK_OPT_STK_CLR);

    OSTaskStkInit(task2, NULL, (void *)&task2_stk[TASK_STACKSIZE - 1], 0);
   40538:	01000134 	movhi	r4,4
   4053c:	21010204 	addi	r4,r4,1032
   40540:	000b883a 	mov	r5,zero
   40544:	018001b4 	movhi	r6,6
   40548:	31bd6104 	addi	r6,r6,-2684
   4054c:	000f883a 	mov	r7,zero
   40550:	004d3240 	call	4d324 <OSTaskStkInit>
    OSTaskCreateExt(task2,
   40554:	00800084 	movi	r2,2
   40558:	d8800015 	stw	r2,0(sp)
   4055c:	008001b4 	movhi	r2,6
   40560:	10b56204 	addi	r2,r2,-10872
   40564:	d8800115 	stw	r2,4(sp)
   40568:	00820004 	movi	r2,2048
   4056c:	d8800215 	stw	r2,8(sp)
   40570:	d8000315 	stw	zero,12(sp)
   40574:	008000c4 	movi	r2,3
   40578:	d8800415 	stw	r2,16(sp)
   4057c:	01000134 	movhi	r4,4
   40580:	21010204 	addi	r4,r4,1032
   40584:	000b883a 	mov	r5,zero
   40588:	018001b4 	movhi	r6,6
   4058c:	31bd6104 	addi	r6,r6,-2684
   40590:	01c00084 	movi	r7,2
   40594:	0053f300 	call	53f30 <OSTaskCreateExt>
                    task2_stk,
                    TASK_STACKSIZE,
                    NULL,
                    OS_TASK_OPT_STK_CHK | OS_TASK_OPT_STK_CLR);

    OSStart();
   40598:	004e5a00 	call	4e5a0 <OSStart>
    return 0;
   4059c:	0005883a 	mov	r2,zero
}
   405a0:	e037883a 	mov	sp,fp
   405a4:	dfc00117 	ldw	ra,4(sp)
   405a8:	df000017 	ldw	fp,0(sp)
   405ac:	dec00204 	addi	sp,sp,8
   405b0:	f800283a 	ret

000405b4 <OSTimeTickHook>:
void OSTimeTickHook(void)
{
   405b4:	defffe04 	addi	sp,sp,-8
   405b8:	dfc00115 	stw	ra,4(sp)
   405bc:	df000015 	stw	fp,0(sp)
   405c0:	d839883a 	mov	fp,sp
    {
        OSTmrCtr = 0;
        OSTmrSignal();
    }
#endif
    if (compteur % OS_TICKS_PER_SEC == 0)
   405c4:	d0a71117 	ldw	r2,-25532(gp)
   405c8:	1009883a 	mov	r4,r2
   405cc:	0140fa04 	movi	r5,1000
   405d0:	00407280 	call	40728 <__umodsi3>
   405d4:	1000031e 	bne	r2,zero,405e4 <OSTimeTickHook+0x30>
    {
        time_sec++;
   405d8:	d0a71017 	ldw	r2,-25536(gp)
   405dc:	10800044 	addi	r2,r2,1
   405e0:	d0a71015 	stw	r2,-25536(gp)
    }
    compteur++;
   405e4:	d0a71117 	ldw	r2,-25532(gp)
   405e8:	10800044 	addi	r2,r2,1
   405ec:	d0a71115 	stw	r2,-25532(gp)
#ifdef ALT_INICHE
    /* Service the Interniche timer */
    cticks_hook();
#endif
}
   405f0:	e037883a 	mov	sp,fp
   405f4:	dfc00117 	ldw	ra,4(sp)
   405f8:	df000017 	ldw	fp,0(sp)
   405fc:	dec00204 	addi	sp,sp,8
   40600:	f800283a 	ret

00040604 <udivmodsi4>:
   40604:	2900182e 	bgeu	r5,r4,40668 <udivmodsi4+0x64>
   40608:	28001716 	blt	r5,zero,40668 <udivmodsi4+0x64>
   4060c:	00800804 	movi	r2,32
   40610:	00c00044 	movi	r3,1
   40614:	00000206 	br	40620 <udivmodsi4+0x1c>
   40618:	10001126 	beq	r2,zero,40660 <udivmodsi4+0x5c>
   4061c:	28000516 	blt	r5,zero,40634 <udivmodsi4+0x30>
   40620:	294b883a 	add	r5,r5,r5
   40624:	10bfffc4 	addi	r2,r2,-1
   40628:	18c7883a 	add	r3,r3,r3
   4062c:	293ffa36 	bltu	r5,r4,40618 <__alt_data_end+0xfffcf8d8>
   40630:	18000b26 	beq	r3,zero,40660 <udivmodsi4+0x5c>
   40634:	0005883a 	mov	r2,zero
   40638:	21400236 	bltu	r4,r5,40644 <udivmodsi4+0x40>
   4063c:	2149c83a 	sub	r4,r4,r5
   40640:	10c4b03a 	or	r2,r2,r3
   40644:	1806d07a 	srli	r3,r3,1
   40648:	280ad07a 	srli	r5,r5,1
   4064c:	183ffa1e 	bne	r3,zero,40638 <__alt_data_end+0xfffcf8f8>
   40650:	3000011e 	bne	r6,zero,40658 <udivmodsi4+0x54>
   40654:	f800283a 	ret
   40658:	2005883a 	mov	r2,r4
   4065c:	f800283a 	ret
   40660:	0005883a 	mov	r2,zero
   40664:	003ffa06 	br	40650 <__alt_data_end+0xfffcf910>
   40668:	00c00044 	movi	r3,1
   4066c:	003ff106 	br	40634 <__alt_data_end+0xfffcf8f4>

00040670 <__divsi3>:
   40670:	defffe04 	addi	sp,sp,-8
   40674:	dfc00115 	stw	ra,4(sp)
   40678:	dc000015 	stw	r16,0(sp)
   4067c:	20000b16 	blt	r4,zero,406ac <__divsi3+0x3c>
   40680:	0021883a 	mov	r16,zero
   40684:	28000c16 	blt	r5,zero,406b8 <__divsi3+0x48>
   40688:	000d883a 	mov	r6,zero
   4068c:	00406040 	call	40604 <udivmodsi4>
   40690:	0407c83a 	sub	r3,zero,r16
   40694:	1884f03a 	xor	r2,r3,r2
   40698:	1405883a 	add	r2,r2,r16
   4069c:	dfc00117 	ldw	ra,4(sp)
   406a0:	dc000017 	ldw	r16,0(sp)
   406a4:	dec00204 	addi	sp,sp,8
   406a8:	f800283a 	ret
   406ac:	0109c83a 	sub	r4,zero,r4
   406b0:	04000044 	movi	r16,1
   406b4:	283ff40e 	bge	r5,zero,40688 <__alt_data_end+0xfffcf948>
   406b8:	014bc83a 	sub	r5,zero,r5
   406bc:	8400005c 	xori	r16,r16,1
   406c0:	003ff106 	br	40688 <__alt_data_end+0xfffcf948>

000406c4 <__modsi3>:
   406c4:	defffd04 	addi	sp,sp,-12
   406c8:	dfc00215 	stw	ra,8(sp)
   406cc:	dc400115 	stw	r17,4(sp)
   406d0:	dc000015 	stw	r16,0(sp)
   406d4:	20000c16 	blt	r4,zero,40708 <__modsi3+0x44>
   406d8:	0023883a 	mov	r17,zero
   406dc:	0021883a 	mov	r16,zero
   406e0:	28000d16 	blt	r5,zero,40718 <__modsi3+0x54>
   406e4:	01800044 	movi	r6,1
   406e8:	00406040 	call	40604 <udivmodsi4>
   406ec:	1404f03a 	xor	r2,r2,r16
   406f0:	8885883a 	add	r2,r17,r2
   406f4:	dfc00217 	ldw	ra,8(sp)
   406f8:	dc400117 	ldw	r17,4(sp)
   406fc:	dc000017 	ldw	r16,0(sp)
   40700:	dec00304 	addi	sp,sp,12
   40704:	f800283a 	ret
   40708:	0109c83a 	sub	r4,zero,r4
   4070c:	04400044 	movi	r17,1
   40710:	043fffc4 	movi	r16,-1
   40714:	283ff30e 	bge	r5,zero,406e4 <__alt_data_end+0xfffcf9a4>
   40718:	014bc83a 	sub	r5,zero,r5
   4071c:	003ff106 	br	406e4 <__alt_data_end+0xfffcf9a4>

00040720 <__udivsi3>:
   40720:	000d883a 	mov	r6,zero
   40724:	00406041 	jmpi	40604 <udivmodsi4>

00040728 <__umodsi3>:
   40728:	01800044 	movi	r6,1
   4072c:	00406041 	jmpi	40604 <udivmodsi4>

00040730 <_printf_r>:
   40730:	defffd04 	addi	sp,sp,-12
   40734:	dfc00015 	stw	ra,0(sp)
   40738:	d9800115 	stw	r6,4(sp)
   4073c:	d9c00215 	stw	r7,8(sp)
   40740:	280d883a 	mov	r6,r5
   40744:	21400217 	ldw	r5,8(r4)
   40748:	d9c00104 	addi	r7,sp,4
   4074c:	00408fc0 	call	408fc <___vfprintf_internal_r>
   40750:	dfc00017 	ldw	ra,0(sp)
   40754:	dec00304 	addi	sp,sp,12
   40758:	f800283a 	ret

0004075c <printf>:
   4075c:	defffc04 	addi	sp,sp,-16
   40760:	dfc00015 	stw	ra,0(sp)
   40764:	d9400115 	stw	r5,4(sp)
   40768:	d9800215 	stw	r6,8(sp)
   4076c:	d9c00315 	stw	r7,12(sp)
   40770:	008001b4 	movhi	r2,6
   40774:	10a62104 	addi	r2,r2,-26492
   40778:	10800017 	ldw	r2,0(r2)
   4077c:	200b883a 	mov	r5,r4
   40780:	d9800104 	addi	r6,sp,4
   40784:	11000217 	ldw	r4,8(r2)
   40788:	00428f80 	call	428f8 <__vfprintf_internal>
   4078c:	dfc00017 	ldw	ra,0(sp)
   40790:	dec00404 	addi	sp,sp,16
   40794:	f800283a 	ret

00040798 <_puts_r>:
   40798:	defff604 	addi	sp,sp,-40
   4079c:	dc000715 	stw	r16,28(sp)
   407a0:	2021883a 	mov	r16,r4
   407a4:	2809883a 	mov	r4,r5
   407a8:	dc400815 	stw	r17,32(sp)
   407ac:	dfc00915 	stw	ra,36(sp)
   407b0:	2823883a 	mov	r17,r5
   407b4:	00408640 	call	40864 <strlen>
   407b8:	00c001b4 	movhi	r3,6
   407bc:	18e62104 	addi	r3,r3,-26492
   407c0:	18c00017 	ldw	r3,0(r3)
   407c4:	11000044 	addi	r4,r2,1
   407c8:	d8800115 	stw	r2,4(sp)
   407cc:	18c00217 	ldw	r3,8(r3)
   407d0:	01400174 	movhi	r5,5
   407d4:	295e6704 	addi	r5,r5,31132
   407d8:	1880030b 	ldhu	r2,12(r3)
   407dc:	d9400215 	stw	r5,8(sp)
   407e0:	d9000615 	stw	r4,24(sp)
   407e4:	01400044 	movi	r5,1
   407e8:	01000084 	movi	r4,2
   407ec:	d9000515 	stw	r4,20(sp)
   407f0:	dc400015 	stw	r17,0(sp)
   407f4:	d9400315 	stw	r5,12(sp)
   407f8:	dec00415 	stw	sp,16(sp)
   407fc:	1108000c 	andi	r4,r2,8192
   40800:	2000061e 	bne	r4,zero,4081c <_puts_r+0x84>
   40804:	19401917 	ldw	r5,100(r3)
   40808:	0137ffc4 	movi	r4,-8193
   4080c:	10880014 	ori	r2,r2,8192
   40810:	2908703a 	and	r4,r5,r4
   40814:	1880030d 	sth	r2,12(r3)
   40818:	19001915 	stw	r4,100(r3)
   4081c:	81400217 	ldw	r5,8(r16)
   40820:	8009883a 	mov	r4,r16
   40824:	d9800404 	addi	r6,sp,16
   40828:	0044d800 	call	44d80 <__sfvwrite_r>
   4082c:	1000061e 	bne	r2,zero,40848 <_puts_r+0xb0>
   40830:	00800284 	movi	r2,10
   40834:	dfc00917 	ldw	ra,36(sp)
   40838:	dc400817 	ldw	r17,32(sp)
   4083c:	dc000717 	ldw	r16,28(sp)
   40840:	dec00a04 	addi	sp,sp,40
   40844:	f800283a 	ret
   40848:	00bfffc4 	movi	r2,-1
   4084c:	003ff906 	br	40834 <__alt_data_end+0xfffcfaf4>

00040850 <puts>:
   40850:	008001b4 	movhi	r2,6
   40854:	10a62104 	addi	r2,r2,-26492
   40858:	200b883a 	mov	r5,r4
   4085c:	11000017 	ldw	r4,0(r2)
   40860:	00407981 	jmpi	40798 <_puts_r>

00040864 <strlen>:
   40864:	208000cc 	andi	r2,r4,3
   40868:	10002026 	beq	r2,zero,408ec <strlen+0x88>
   4086c:	20800007 	ldb	r2,0(r4)
   40870:	10002026 	beq	r2,zero,408f4 <strlen+0x90>
   40874:	2005883a 	mov	r2,r4
   40878:	00000206 	br	40884 <strlen+0x20>
   4087c:	10c00007 	ldb	r3,0(r2)
   40880:	18001826 	beq	r3,zero,408e4 <strlen+0x80>
   40884:	10800044 	addi	r2,r2,1
   40888:	10c000cc 	andi	r3,r2,3
   4088c:	183ffb1e 	bne	r3,zero,4087c <__alt_data_end+0xfffcfb3c>
   40890:	10c00017 	ldw	r3,0(r2)
   40894:	01ffbff4 	movhi	r7,65279
   40898:	39ffbfc4 	addi	r7,r7,-257
   4089c:	00ca303a 	nor	r5,zero,r3
   408a0:	01a02074 	movhi	r6,32897
   408a4:	19c7883a 	add	r3,r3,r7
   408a8:	31a02004 	addi	r6,r6,-32640
   408ac:	1946703a 	and	r3,r3,r5
   408b0:	1986703a 	and	r3,r3,r6
   408b4:	1800091e 	bne	r3,zero,408dc <strlen+0x78>
   408b8:	10800104 	addi	r2,r2,4
   408bc:	10c00017 	ldw	r3,0(r2)
   408c0:	19cb883a 	add	r5,r3,r7
   408c4:	00c6303a 	nor	r3,zero,r3
   408c8:	28c6703a 	and	r3,r5,r3
   408cc:	1986703a 	and	r3,r3,r6
   408d0:	183ff926 	beq	r3,zero,408b8 <__alt_data_end+0xfffcfb78>
   408d4:	00000106 	br	408dc <strlen+0x78>
   408d8:	10800044 	addi	r2,r2,1
   408dc:	10c00007 	ldb	r3,0(r2)
   408e0:	183ffd1e 	bne	r3,zero,408d8 <__alt_data_end+0xfffcfb98>
   408e4:	1105c83a 	sub	r2,r2,r4
   408e8:	f800283a 	ret
   408ec:	2005883a 	mov	r2,r4
   408f0:	003fe706 	br	40890 <__alt_data_end+0xfffcfb50>
   408f4:	0005883a 	mov	r2,zero
   408f8:	f800283a 	ret

000408fc <___vfprintf_internal_r>:
   408fc:	defeb604 	addi	sp,sp,-1320
   40900:	dfc14915 	stw	ra,1316(sp)
   40904:	ddc14715 	stw	r23,1308(sp)
   40908:	dd814615 	stw	r22,1304(sp)
   4090c:	282f883a 	mov	r23,r5
   40910:	202d883a 	mov	r22,r4
   40914:	d9812a15 	stw	r6,1192(sp)
   40918:	d9c12d15 	stw	r7,1204(sp)
   4091c:	df014815 	stw	fp,1312(sp)
   40920:	dd414515 	stw	r21,1300(sp)
   40924:	dd014415 	stw	r20,1296(sp)
   40928:	dcc14315 	stw	r19,1292(sp)
   4092c:	dc814215 	stw	r18,1288(sp)
   40930:	dc414115 	stw	r17,1284(sp)
   40934:	dc014015 	stw	r16,1280(sp)
   40938:	00454400 	call	45440 <_localeconv_r>
   4093c:	10800017 	ldw	r2,0(r2)
   40940:	1009883a 	mov	r4,r2
   40944:	d8813515 	stw	r2,1236(sp)
   40948:	00408640 	call	40864 <strlen>
   4094c:	d8813815 	stw	r2,1248(sp)
   40950:	b0000226 	beq	r22,zero,4095c <___vfprintf_internal_r+0x60>
   40954:	b0800e17 	ldw	r2,56(r22)
   40958:	10010426 	beq	r2,zero,40d6c <___vfprintf_internal_r+0x470>
   4095c:	b8c0030b 	ldhu	r3,12(r23)
   40960:	1908000c 	andi	r4,r3,8192
   40964:	1805883a 	mov	r2,r3
   40968:	2000071e 	bne	r4,zero,40988 <___vfprintf_internal_r+0x8c>
   4096c:	b9001917 	ldw	r4,100(r23)
   40970:	18880014 	ori	r2,r3,8192
   40974:	00f7ffc4 	movi	r3,-8193
   40978:	20c8703a 	and	r4,r4,r3
   4097c:	b880030d 	sth	r2,12(r23)
   40980:	1007883a 	mov	r3,r2
   40984:	b9001915 	stw	r4,100(r23)
   40988:	1100020c 	andi	r4,r2,8
   4098c:	2000a726 	beq	r4,zero,40c2c <___vfprintf_internal_r+0x330>
   40990:	b9000417 	ldw	r4,16(r23)
   40994:	2000a526 	beq	r4,zero,40c2c <___vfprintf_internal_r+0x330>
   40998:	1080068c 	andi	r2,r2,26
   4099c:	01000284 	movi	r4,10
   409a0:	1100ab26 	beq	r2,r4,40c50 <___vfprintf_internal_r+0x354>
   409a4:	dac10e04 	addi	r11,sp,1080
   409a8:	db010dc4 	addi	r12,sp,1079
   409ac:	d8800404 	addi	r2,sp,16
   409b0:	05000174 	movhi	r20,5
   409b4:	dac12815 	stw	r11,1184(sp)
   409b8:	5b17c83a 	sub	r11,r11,r12
   409bc:	a51e7884 	addi	r20,r20,31202
   409c0:	db012915 	stw	r12,1188(sp)
   409c4:	d8811e15 	stw	r2,1144(sp)
   409c8:	d8012015 	stw	zero,1152(sp)
   409cc:	d8011f15 	stw	zero,1148(sp)
   409d0:	d8013315 	stw	zero,1228(sp)
   409d4:	d8013715 	stw	zero,1244(sp)
   409d8:	d8013915 	stw	zero,1252(sp)
   409dc:	d8013b15 	stw	zero,1260(sp)
   409e0:	d8013a15 	stw	zero,1256(sp)
   409e4:	d8012f15 	stw	zero,1212(sp)
   409e8:	1011883a 	mov	r8,r2
   409ec:	dac13c15 	stw	r11,1264(sp)
   409f0:	db012a17 	ldw	r12,1192(sp)
   409f4:	60800007 	ldb	r2,0(r12)
   409f8:	1000df26 	beq	r2,zero,40d78 <___vfprintf_internal_r+0x47c>
   409fc:	00c00944 	movi	r3,37
   40a00:	10c0dd26 	beq	r2,r3,40d78 <___vfprintf_internal_r+0x47c>
   40a04:	6021883a 	mov	r16,r12
   40a08:	00000106 	br	40a10 <___vfprintf_internal_r+0x114>
   40a0c:	10c08426 	beq	r2,r3,40c20 <___vfprintf_internal_r+0x324>
   40a10:	84000044 	addi	r16,r16,1
   40a14:	80800007 	ldb	r2,0(r16)
   40a18:	103ffc1e 	bne	r2,zero,40a0c <__alt_data_end+0xfffcfccc>
   40a1c:	dac12a17 	ldw	r11,1192(sp)
   40a20:	82e3c83a 	sub	r17,r16,r11
   40a24:	88000f26 	beq	r17,zero,40a64 <___vfprintf_internal_r+0x168>
   40a28:	d8c12017 	ldw	r3,1152(sp)
   40a2c:	d8811f17 	ldw	r2,1148(sp)
   40a30:	dac12a17 	ldw	r11,1192(sp)
   40a34:	1c47883a 	add	r3,r3,r17
   40a38:	10800044 	addi	r2,r2,1
   40a3c:	d8c12015 	stw	r3,1152(sp)
   40a40:	42c00015 	stw	r11,0(r8)
   40a44:	44400115 	stw	r17,4(r8)
   40a48:	d8811f15 	stw	r2,1148(sp)
   40a4c:	00c001c4 	movi	r3,7
   40a50:	1880b416 	blt	r3,r2,40d24 <___vfprintf_internal_r+0x428>
   40a54:	42000204 	addi	r8,r8,8
   40a58:	db012f17 	ldw	r12,1212(sp)
   40a5c:	6459883a 	add	r12,r12,r17
   40a60:	db012f15 	stw	r12,1212(sp)
   40a64:	80800007 	ldb	r2,0(r16)
   40a68:	1000b526 	beq	r2,zero,40d40 <___vfprintf_internal_r+0x444>
   40a6c:	80800044 	addi	r2,r16,1
   40a70:	84000047 	ldb	r16,1(r16)
   40a74:	d8012785 	stb	zero,1182(sp)
   40a78:	000d883a 	mov	r6,zero
   40a7c:	027fffc4 	movi	r9,-1
   40a80:	d8012e15 	stw	zero,1208(sp)
   40a84:	0023883a 	mov	r17,zero
   40a88:	01001604 	movi	r4,88
   40a8c:	01400244 	movi	r5,9
   40a90:	02800a84 	movi	r10,42
   40a94:	01c01b04 	movi	r7,108
   40a98:	10c00044 	addi	r3,r2,1
   40a9c:	80bff804 	addi	r2,r16,-32
   40aa0:	2082f236 	bltu	r4,r2,4166c <___vfprintf_internal_r+0xd70>
   40aa4:	100490ba 	slli	r2,r2,2
   40aa8:	02c00134 	movhi	r11,4
   40aac:	5ac2af04 	addi	r11,r11,2748
   40ab0:	12c5883a 	add	r2,r2,r11
   40ab4:	10800017 	ldw	r2,0(r2)
   40ab8:	1000683a 	jmp	r2
   40abc:	000414b4 	movhi	zero,4178
   40ac0:	0004166c 	andhi	zero,zero,4185
   40ac4:	0004166c 	andhi	zero,zero,4185
   40ac8:	000414d4 	movui	zero,4179
   40acc:	0004166c 	andhi	zero,zero,4185
   40ad0:	0004166c 	andhi	zero,zero,4185
   40ad4:	0004166c 	andhi	zero,zero,4185
   40ad8:	0004166c 	andhi	zero,zero,4185
   40adc:	0004166c 	andhi	zero,zero,4185
   40ae0:	0004166c 	andhi	zero,zero,4185
   40ae4:	00041630 	cmpltui	zero,zero,4184
   40ae8:	0004165c 	xori	zero,zero,4185
   40aec:	0004166c 	andhi	zero,zero,4185
   40af0:	00040d80 	call	40d8 <OSCtxSw_SWITCH_PC+0x4098>
   40af4:	00040d90 	cmplti	zero,zero,4150
   40af8:	0004166c 	andhi	zero,zero,4185
   40afc:	00040dd0 	cmplti	zero,zero,4151
   40b00:	000412c4 	movi	zero,4171
   40b04:	000412c4 	movi	zero,4171
   40b08:	000412c4 	movi	zero,4171
   40b0c:	000412c4 	movi	zero,4171
   40b10:	000412c4 	movi	zero,4171
   40b14:	000412c4 	movi	zero,4171
   40b18:	000412c4 	movi	zero,4171
   40b1c:	000412c4 	movi	zero,4171
   40b20:	000412c4 	movi	zero,4171
   40b24:	0004166c 	andhi	zero,zero,4185
   40b28:	0004166c 	andhi	zero,zero,4185
   40b2c:	0004166c 	andhi	zero,zero,4185
   40b30:	0004166c 	andhi	zero,zero,4185
   40b34:	0004166c 	andhi	zero,zero,4185
   40b38:	0004166c 	andhi	zero,zero,4185
   40b3c:	0004166c 	andhi	zero,zero,4185
   40b40:	0004166c 	andhi	zero,zero,4185
   40b44:	0004166c 	andhi	zero,zero,4185
   40b48:	0004166c 	andhi	zero,zero,4185
   40b4c:	000412f8 	rdprs	zero,zero,4171
   40b50:	00040de0 	cmpeqi	zero,zero,4151
   40b54:	0004166c 	andhi	zero,zero,4185
   40b58:	00040de0 	cmpeqi	zero,zero,4151
   40b5c:	0004166c 	andhi	zero,zero,4185
   40b60:	0004166c 	andhi	zero,zero,4185
   40b64:	0004166c 	andhi	zero,zero,4185
   40b68:	0004166c 	andhi	zero,zero,4185
   40b6c:	00040e84 	movi	zero,4154
   40b70:	0004166c 	andhi	zero,zero,4185
   40b74:	0004166c 	andhi	zero,zero,4185
   40b78:	00040e94 	movui	zero,4154
   40b7c:	0004166c 	andhi	zero,zero,4185
   40b80:	0004166c 	andhi	zero,zero,4185
   40b84:	0004166c 	andhi	zero,zero,4185
   40b88:	0004166c 	andhi	zero,zero,4185
   40b8c:	0004166c 	andhi	zero,zero,4185
   40b90:	00041290 	cmplti	zero,zero,4170
   40b94:	0004166c 	andhi	zero,zero,4185
   40b98:	0004166c 	andhi	zero,zero,4185
   40b9c:	00041340 	call	4134 <OSCtxSw_SWITCH_PC+0x40f4>
   40ba0:	0004166c 	andhi	zero,zero,4185
   40ba4:	0004166c 	andhi	zero,zero,4185
   40ba8:	0004166c 	andhi	zero,zero,4185
   40bac:	0004166c 	andhi	zero,zero,4185
   40bb0:	0004166c 	andhi	zero,zero,4185
   40bb4:	0004166c 	andhi	zero,zero,4185
   40bb8:	0004166c 	andhi	zero,zero,4185
   40bbc:	0004166c 	andhi	zero,zero,4185
   40bc0:	0004166c 	andhi	zero,zero,4185
   40bc4:	0004166c 	andhi	zero,zero,4185
   40bc8:	00041534 	movhi	zero,4180
   40bcc:	000414e4 	muli	zero,zero,4179
   40bd0:	00040de0 	cmpeqi	zero,zero,4151
   40bd4:	00040de0 	cmpeqi	zero,zero,4151
   40bd8:	00040de0 	cmpeqi	zero,zero,4151
   40bdc:	00041524 	muli	zero,zero,4180
   40be0:	000414e4 	muli	zero,zero,4179
   40be4:	0004166c 	andhi	zero,zero,4185
   40be8:	0004166c 	andhi	zero,zero,4185
   40bec:	0004142c 	andhi	zero,zero,4176
   40bf0:	0004166c 	andhi	zero,zero,4185
   40bf4:	00041440 	call	4144 <OSCtxSw_SWITCH_PC+0x4104>
   40bf8:	00041474 	movhi	zero,4177
   40bfc:	00041574 	movhi	zero,4181
   40c00:	0004139c 	xori	zero,zero,4174
   40c04:	0004166c 	andhi	zero,zero,4185
   40c08:	000415bc 	xorhi	zero,zero,4182
   40c0c:	0004166c 	andhi	zero,zero,4185
   40c10:	000413ac 	andhi	zero,zero,4174
   40c14:	0004166c 	andhi	zero,zero,4185
   40c18:	0004166c 	andhi	zero,zero,4185
   40c1c:	000413ec 	andhi	zero,zero,4175
   40c20:	db012a17 	ldw	r12,1192(sp)
   40c24:	8323c83a 	sub	r17,r16,r12
   40c28:	003f7e06 	br	40a24 <__alt_data_end+0xfffcfce4>
   40c2c:	b009883a 	mov	r4,r22
   40c30:	b80b883a 	mov	r5,r23
   40c34:	004291c0 	call	4291c <__swsetup_r>
   40c38:	10002d1e 	bne	r2,zero,40cf0 <___vfprintf_internal_r+0x3f4>
   40c3c:	b8c0030b 	ldhu	r3,12(r23)
   40c40:	01000284 	movi	r4,10
   40c44:	1805883a 	mov	r2,r3
   40c48:	1080068c 	andi	r2,r2,26
   40c4c:	113f551e 	bne	r2,r4,409a4 <__alt_data_end+0xfffcfc64>
   40c50:	b880038b 	ldhu	r2,14(r23)
   40c54:	113fffcc 	andi	r4,r2,65535
   40c58:	2120001c 	xori	r4,r4,32768
   40c5c:	21200004 	addi	r4,r4,-32768
   40c60:	203f5016 	blt	r4,zero,409a4 <__alt_data_end+0xfffcfc64>
   40c64:	bac01917 	ldw	r11,100(r23)
   40c68:	ba800717 	ldw	r10,28(r23)
   40c6c:	ba400917 	ldw	r9,36(r23)
   40c70:	d9812a17 	ldw	r6,1192(sp)
   40c74:	d9c12d17 	ldw	r7,1204(sp)
   40c78:	02010004 	movi	r8,1024
   40c7c:	18ffff4c 	andi	r3,r3,65533
   40c80:	d881078d 	sth	r2,1054(sp)
   40c84:	b009883a 	mov	r4,r22
   40c88:	d8800404 	addi	r2,sp,16
   40c8c:	d9410404 	addi	r5,sp,1040
   40c90:	d8c1070d 	sth	r3,1052(sp)
   40c94:	dac11d15 	stw	r11,1140(sp)
   40c98:	da810b15 	stw	r10,1068(sp)
   40c9c:	da410d15 	stw	r9,1076(sp)
   40ca0:	d8810415 	stw	r2,1040(sp)
   40ca4:	d8810815 	stw	r2,1056(sp)
   40ca8:	da010615 	stw	r8,1048(sp)
   40cac:	da010915 	stw	r8,1060(sp)
   40cb0:	d8010a15 	stw	zero,1064(sp)
   40cb4:	00408fc0 	call	408fc <___vfprintf_internal_r>
   40cb8:	1021883a 	mov	r16,r2
   40cbc:	10000416 	blt	r2,zero,40cd0 <___vfprintf_internal_r+0x3d4>
   40cc0:	b009883a 	mov	r4,r22
   40cc4:	d9410404 	addi	r5,sp,1040
   40cc8:	00443740 	call	44374 <_fflush_r>
   40ccc:	1006ee1e 	bne	r2,zero,42888 <___vfprintf_internal_r+0x1f8c>
   40cd0:	d881070b 	ldhu	r2,1052(sp)
   40cd4:	1080100c 	andi	r2,r2,64
   40cd8:	10000326 	beq	r2,zero,40ce8 <___vfprintf_internal_r+0x3ec>
   40cdc:	b880030b 	ldhu	r2,12(r23)
   40ce0:	10801014 	ori	r2,r2,64
   40ce4:	b880030d 	sth	r2,12(r23)
   40ce8:	8005883a 	mov	r2,r16
   40cec:	00000106 	br	40cf4 <___vfprintf_internal_r+0x3f8>
   40cf0:	00bfffc4 	movi	r2,-1
   40cf4:	dfc14917 	ldw	ra,1316(sp)
   40cf8:	df014817 	ldw	fp,1312(sp)
   40cfc:	ddc14717 	ldw	r23,1308(sp)
   40d00:	dd814617 	ldw	r22,1304(sp)
   40d04:	dd414517 	ldw	r21,1300(sp)
   40d08:	dd014417 	ldw	r20,1296(sp)
   40d0c:	dcc14317 	ldw	r19,1292(sp)
   40d10:	dc814217 	ldw	r18,1288(sp)
   40d14:	dc414117 	ldw	r17,1284(sp)
   40d18:	dc014017 	ldw	r16,1280(sp)
   40d1c:	dec14a04 	addi	sp,sp,1320
   40d20:	f800283a 	ret
   40d24:	b009883a 	mov	r4,r22
   40d28:	b80b883a 	mov	r5,r23
   40d2c:	d9811e04 	addi	r6,sp,1144
   40d30:	0047b440 	call	47b44 <__sprint_r>
   40d34:	1000081e 	bne	r2,zero,40d58 <___vfprintf_internal_r+0x45c>
   40d38:	da000404 	addi	r8,sp,16
   40d3c:	003f4606 	br	40a58 <__alt_data_end+0xfffcfd18>
   40d40:	d8812017 	ldw	r2,1152(sp)
   40d44:	10000426 	beq	r2,zero,40d58 <___vfprintf_internal_r+0x45c>
   40d48:	b009883a 	mov	r4,r22
   40d4c:	b80b883a 	mov	r5,r23
   40d50:	d9811e04 	addi	r6,sp,1144
   40d54:	0047b440 	call	47b44 <__sprint_r>
   40d58:	b880030b 	ldhu	r2,12(r23)
   40d5c:	1080100c 	andi	r2,r2,64
   40d60:	103fe31e 	bne	r2,zero,40cf0 <__alt_data_end+0xfffcffb0>
   40d64:	d8812f17 	ldw	r2,1212(sp)
   40d68:	003fe206 	br	40cf4 <__alt_data_end+0xfffcffb4>
   40d6c:	b009883a 	mov	r4,r22
   40d70:	004491c0 	call	4491c <__sinit>
   40d74:	003ef906 	br	4095c <__alt_data_end+0xfffcfc1c>
   40d78:	dc012a17 	ldw	r16,1192(sp)
   40d7c:	003f3906 	br	40a64 <__alt_data_end+0xfffcfd24>
   40d80:	1805883a 	mov	r2,r3
   40d84:	8c400114 	ori	r17,r17,4
   40d88:	1c000007 	ldb	r16,0(r3)
   40d8c:	003f4206 	br	40a98 <__alt_data_end+0xfffcfd58>
   40d90:	1c000007 	ldb	r16,0(r3)
   40d94:	18800044 	addi	r2,r3,1
   40d98:	8286b326 	beq	r16,r10,42868 <___vfprintf_internal_r+0x1f6c>
   40d9c:	82fff404 	addi	r11,r16,-48
   40da0:	1007883a 	mov	r3,r2
   40da4:	0013883a 	mov	r9,zero
   40da8:	2aff3c36 	bltu	r5,r11,40a9c <__alt_data_end+0xfffcfd5c>
   40dac:	1c000007 	ldb	r16,0(r3)
   40db0:	4a4002a4 	muli	r9,r9,10
   40db4:	18c00044 	addi	r3,r3,1
   40db8:	5a53883a 	add	r9,r11,r9
   40dbc:	82fff404 	addi	r11,r16,-48
   40dc0:	2afffa2e 	bgeu	r5,r11,40dac <__alt_data_end+0xfffd006c>
   40dc4:	483f350e 	bge	r9,zero,40a9c <__alt_data_end+0xfffcfd5c>
   40dc8:	027fffc4 	movi	r9,-1
   40dcc:	003f3306 	br	40a9c <__alt_data_end+0xfffcfd5c>
   40dd0:	8c402014 	ori	r17,r17,128
   40dd4:	1805883a 	mov	r2,r3
   40dd8:	1c000007 	ldb	r16,0(r3)
   40ddc:	003f2e06 	br	40a98 <__alt_data_end+0xfffcfd58>
   40de0:	db012d17 	ldw	r12,1204(sp)
   40de4:	dac12d17 	ldw	r11,1204(sp)
   40de8:	d8c12a15 	stw	r3,1192(sp)
   40dec:	63000017 	ldw	r12,0(r12)
   40df0:	5ac00117 	ldw	r11,4(r11)
   40df4:	d9812785 	stb	r6,1182(sp)
   40df8:	6009883a 	mov	r4,r12
   40dfc:	580b883a 	mov	r5,r11
   40e00:	db013715 	stw	r12,1244(sp)
   40e04:	da013f15 	stw	r8,1276(sp)
   40e08:	da413e15 	stw	r9,1272(sp)
   40e0c:	dac13915 	stw	r11,1252(sp)
   40e10:	00477a00 	call	477a0 <__fpclassifyd>
   40e14:	db012d17 	ldw	r12,1204(sp)
   40e18:	04800044 	movi	r18,1
   40e1c:	da013f17 	ldw	r8,1276(sp)
   40e20:	64c00204 	addi	r19,r12,8
   40e24:	da413e17 	ldw	r9,1272(sp)
   40e28:	d9013717 	ldw	r4,1244(sp)
   40e2c:	d9413917 	ldw	r5,1252(sp)
   40e30:	1484581e 	bne	r2,r18,41f94 <___vfprintf_internal_r+0x1698>
   40e34:	000d883a 	mov	r6,zero
   40e38:	000f883a 	mov	r7,zero
   40e3c:	004b6300 	call	4b630 <__ledf2>
   40e40:	da013f17 	ldw	r8,1276(sp)
   40e44:	1005ef16 	blt	r2,zero,42604 <___vfprintf_internal_r+0x1d08>
   40e48:	dd412783 	ldbu	r21,1182(sp)
   40e4c:	008011c4 	movi	r2,71
   40e50:	14053b0e 	bge	r2,r16,42340 <___vfprintf_internal_r+0x1a44>
   40e54:	00c00174 	movhi	r3,5
   40e58:	18de6904 	addi	r3,r3,31140
   40e5c:	d8c13115 	stw	r3,1220(sp)
   40e60:	02c000c4 	movi	r11,3
   40e64:	00bfdfc4 	movi	r2,-129
   40e68:	dac12b15 	stw	r11,1196(sp)
   40e6c:	88a2703a 	and	r17,r17,r2
   40e70:	dcc12d15 	stw	r19,1204(sp)
   40e74:	5825883a 	mov	r18,r11
   40e78:	d8013215 	stw	zero,1224(sp)
   40e7c:	d8013415 	stw	zero,1232(sp)
   40e80:	00003206 	br	40f4c <___vfprintf_internal_r+0x650>
   40e84:	8c400214 	ori	r17,r17,8
   40e88:	1805883a 	mov	r2,r3
   40e8c:	1c000007 	ldb	r16,0(r3)
   40e90:	003f0106 	br	40a98 <__alt_data_end+0xfffcfd58>
   40e94:	8c400414 	ori	r17,r17,16
   40e98:	d8c12a15 	stw	r3,1192(sp)
   40e9c:	88c0080c 	andi	r3,r17,32
   40ea0:	d8812d17 	ldw	r2,1204(sp)
   40ea4:	18017726 	beq	r3,zero,41484 <___vfprintf_internal_r+0xb88>
   40ea8:	db012d17 	ldw	r12,1204(sp)
   40eac:	14c00017 	ldw	r19,0(r2)
   40eb0:	17000117 	ldw	fp,4(r2)
   40eb4:	63000204 	addi	r12,r12,8
   40eb8:	db012d15 	stw	r12,1204(sp)
   40ebc:	0005883a 	mov	r2,zero
   40ec0:	9f06b03a 	or	r3,r19,fp
   40ec4:	d8012785 	stb	zero,1182(sp)
   40ec8:	da413215 	stw	r9,1224(sp)
   40ecc:	002b883a 	mov	r21,zero
   40ed0:	48000216 	blt	r9,zero,40edc <___vfprintf_internal_r+0x5e0>
   40ed4:	013fdfc4 	movi	r4,-129
   40ed8:	8922703a 	and	r17,r17,r4
   40edc:	1801ed1e 	bne	r3,zero,41694 <___vfprintf_internal_r+0xd98>
   40ee0:	4802e026 	beq	r9,zero,41a64 <___vfprintf_internal_r+0x1168>
   40ee4:	10803fcc 	andi	r2,r2,255
   40ee8:	00c00044 	movi	r3,1
   40eec:	10c20f26 	beq	r2,r3,4172c <___vfprintf_internal_r+0xe30>
   40ef0:	00c00084 	movi	r3,2
   40ef4:	10c2fd26 	beq	r2,r3,41aec <___vfprintf_internal_r+0x11f0>
   40ef8:	d8c10e04 	addi	r3,sp,1080
   40efc:	9808d0fa 	srli	r4,r19,3
   40f00:	e00a977a 	slli	r5,fp,29
   40f04:	e038d0fa 	srli	fp,fp,3
   40f08:	9cc001cc 	andi	r19,r19,7
   40f0c:	98800c04 	addi	r2,r19,48
   40f10:	18ffffc4 	addi	r3,r3,-1
   40f14:	2926b03a 	or	r19,r5,r4
   40f18:	18800005 	stb	r2,0(r3)
   40f1c:	9f08b03a 	or	r4,r19,fp
   40f20:	203ff61e 	bne	r4,zero,40efc <__alt_data_end+0xfffd01bc>
   40f24:	8900004c 	andi	r4,r17,1
   40f28:	d8c13115 	stw	r3,1220(sp)
   40f2c:	2003791e 	bne	r4,zero,41d14 <___vfprintf_internal_r+0x1418>
   40f30:	dac12817 	ldw	r11,1184(sp)
   40f34:	58e5c83a 	sub	r18,r11,r3
   40f38:	9005883a 	mov	r2,r18
   40f3c:	9240010e 	bge	r18,r9,40f44 <___vfprintf_internal_r+0x648>
   40f40:	4805883a 	mov	r2,r9
   40f44:	d8812b15 	stw	r2,1196(sp)
   40f48:	d8013415 	stw	zero,1232(sp)
   40f4c:	a8803fcc 	andi	r2,r21,255
   40f50:	1080201c 	xori	r2,r2,128
   40f54:	10bfe004 	addi	r2,r2,-128
   40f58:	10000326 	beq	r2,zero,40f68 <___vfprintf_internal_r+0x66c>
   40f5c:	db012b17 	ldw	r12,1196(sp)
   40f60:	63000044 	addi	r12,r12,1
   40f64:	db012b15 	stw	r12,1196(sp)
   40f68:	88c0008c 	andi	r3,r17,2
   40f6c:	d8c12c15 	stw	r3,1200(sp)
   40f70:	18000326 	beq	r3,zero,40f80 <___vfprintf_internal_r+0x684>
   40f74:	dac12b17 	ldw	r11,1196(sp)
   40f78:	5ac00084 	addi	r11,r11,2
   40f7c:	dac12b15 	stw	r11,1196(sp)
   40f80:	8b00210c 	andi	r12,r17,132
   40f84:	db013015 	stw	r12,1216(sp)
   40f88:	6001c01e 	bne	r12,zero,4168c <___vfprintf_internal_r+0xd90>
   40f8c:	dac12e17 	ldw	r11,1208(sp)
   40f90:	db012b17 	ldw	r12,1196(sp)
   40f94:	5b39c83a 	sub	fp,r11,r12
   40f98:	0701bc0e 	bge	zero,fp,4168c <___vfprintf_internal_r+0xd90>
   40f9c:	02400404 	movi	r9,16
   40fa0:	d8c12017 	ldw	r3,1152(sp)
   40fa4:	d8811f17 	ldw	r2,1148(sp)
   40fa8:	4f05220e 	bge	r9,fp,42434 <___vfprintf_internal_r+0x1b38>
   40fac:	01400174 	movhi	r5,5
   40fb0:	295e7c84 	addi	r5,r5,31218
   40fb4:	d9413615 	stw	r5,1240(sp)
   40fb8:	482b883a 	mov	r21,r9
   40fbc:	04c001c4 	movi	r19,7
   40fc0:	00000306 	br	40fd0 <___vfprintf_internal_r+0x6d4>
   40fc4:	e73ffc04 	addi	fp,fp,-16
   40fc8:	42000204 	addi	r8,r8,8
   40fcc:	af00130e 	bge	r21,fp,4101c <___vfprintf_internal_r+0x720>
   40fd0:	02c00174 	movhi	r11,5
   40fd4:	18c00404 	addi	r3,r3,16
   40fd8:	10800044 	addi	r2,r2,1
   40fdc:	5ade7c84 	addi	r11,r11,31218
   40fe0:	42c00015 	stw	r11,0(r8)
   40fe4:	45400115 	stw	r21,4(r8)
   40fe8:	d8c12015 	stw	r3,1152(sp)
   40fec:	d8811f15 	stw	r2,1148(sp)
   40ff0:	98bff40e 	bge	r19,r2,40fc4 <__alt_data_end+0xfffd0284>
   40ff4:	b009883a 	mov	r4,r22
   40ff8:	b80b883a 	mov	r5,r23
   40ffc:	d9811e04 	addi	r6,sp,1144
   41000:	0047b440 	call	47b44 <__sprint_r>
   41004:	103f541e 	bne	r2,zero,40d58 <__alt_data_end+0xfffd0018>
   41008:	e73ffc04 	addi	fp,fp,-16
   4100c:	d8c12017 	ldw	r3,1152(sp)
   41010:	d8811f17 	ldw	r2,1148(sp)
   41014:	da000404 	addi	r8,sp,16
   41018:	af3fed16 	blt	r21,fp,40fd0 <__alt_data_end+0xfffd0290>
   4101c:	db013617 	ldw	r12,1240(sp)
   41020:	e0c7883a 	add	r3,fp,r3
   41024:	10800044 	addi	r2,r2,1
   41028:	43000015 	stw	r12,0(r8)
   4102c:	47000115 	stw	fp,4(r8)
   41030:	d8c12015 	stw	r3,1152(sp)
   41034:	d8811f15 	stw	r2,1148(sp)
   41038:	010001c4 	movi	r4,7
   4103c:	2082f416 	blt	r4,r2,41c10 <___vfprintf_internal_r+0x1314>
   41040:	d8812787 	ldb	r2,1182(sp)
   41044:	42000204 	addi	r8,r8,8
   41048:	10000c26 	beq	r2,zero,4107c <___vfprintf_internal_r+0x780>
   4104c:	d8811f17 	ldw	r2,1148(sp)
   41050:	d9012784 	addi	r4,sp,1182
   41054:	18c00044 	addi	r3,r3,1
   41058:	10800044 	addi	r2,r2,1
   4105c:	41000015 	stw	r4,0(r8)
   41060:	01000044 	movi	r4,1
   41064:	41000115 	stw	r4,4(r8)
   41068:	d8c12015 	stw	r3,1152(sp)
   4106c:	d8811f15 	stw	r2,1148(sp)
   41070:	010001c4 	movi	r4,7
   41074:	20828d16 	blt	r4,r2,41aac <___vfprintf_internal_r+0x11b0>
   41078:	42000204 	addi	r8,r8,8
   4107c:	dac12c17 	ldw	r11,1200(sp)
   41080:	58000c26 	beq	r11,zero,410b4 <___vfprintf_internal_r+0x7b8>
   41084:	d8811f17 	ldw	r2,1148(sp)
   41088:	d9012704 	addi	r4,sp,1180
   4108c:	18c00084 	addi	r3,r3,2
   41090:	10800044 	addi	r2,r2,1
   41094:	41000015 	stw	r4,0(r8)
   41098:	01000084 	movi	r4,2
   4109c:	41000115 	stw	r4,4(r8)
   410a0:	d8c12015 	stw	r3,1152(sp)
   410a4:	d8811f15 	stw	r2,1148(sp)
   410a8:	010001c4 	movi	r4,7
   410ac:	20828716 	blt	r4,r2,41acc <___vfprintf_internal_r+0x11d0>
   410b0:	42000204 	addi	r8,r8,8
   410b4:	db013017 	ldw	r12,1216(sp)
   410b8:	00802004 	movi	r2,128
   410bc:	6081e926 	beq	r12,r2,41864 <___vfprintf_internal_r+0xf68>
   410c0:	db013217 	ldw	r12,1224(sp)
   410c4:	64abc83a 	sub	r21,r12,r18
   410c8:	0540260e 	bge	zero,r21,41164 <___vfprintf_internal_r+0x868>
   410cc:	07000404 	movi	fp,16
   410d0:	d8811f17 	ldw	r2,1148(sp)
   410d4:	e5443d0e 	bge	fp,r21,421cc <___vfprintf_internal_r+0x18d0>
   410d8:	01400174 	movhi	r5,5
   410dc:	295e7884 	addi	r5,r5,31202
   410e0:	d9412c15 	stw	r5,1200(sp)
   410e4:	04c001c4 	movi	r19,7
   410e8:	00000306 	br	410f8 <___vfprintf_internal_r+0x7fc>
   410ec:	ad7ffc04 	addi	r21,r21,-16
   410f0:	42000204 	addi	r8,r8,8
   410f4:	e540110e 	bge	fp,r21,4113c <___vfprintf_internal_r+0x840>
   410f8:	18c00404 	addi	r3,r3,16
   410fc:	10800044 	addi	r2,r2,1
   41100:	45000015 	stw	r20,0(r8)
   41104:	47000115 	stw	fp,4(r8)
   41108:	d8c12015 	stw	r3,1152(sp)
   4110c:	d8811f15 	stw	r2,1148(sp)
   41110:	98bff60e 	bge	r19,r2,410ec <__alt_data_end+0xfffd03ac>
   41114:	b009883a 	mov	r4,r22
   41118:	b80b883a 	mov	r5,r23
   4111c:	d9811e04 	addi	r6,sp,1144
   41120:	0047b440 	call	47b44 <__sprint_r>
   41124:	103f0c1e 	bne	r2,zero,40d58 <__alt_data_end+0xfffd0018>
   41128:	ad7ffc04 	addi	r21,r21,-16
   4112c:	d8c12017 	ldw	r3,1152(sp)
   41130:	d8811f17 	ldw	r2,1148(sp)
   41134:	da000404 	addi	r8,sp,16
   41138:	e57fef16 	blt	fp,r21,410f8 <__alt_data_end+0xfffd03b8>
   4113c:	dac12c17 	ldw	r11,1200(sp)
   41140:	1d47883a 	add	r3,r3,r21
   41144:	10800044 	addi	r2,r2,1
   41148:	42c00015 	stw	r11,0(r8)
   4114c:	45400115 	stw	r21,4(r8)
   41150:	d8c12015 	stw	r3,1152(sp)
   41154:	d8811f15 	stw	r2,1148(sp)
   41158:	010001c4 	movi	r4,7
   4115c:	20824b16 	blt	r4,r2,41a8c <___vfprintf_internal_r+0x1190>
   41160:	42000204 	addi	r8,r8,8
   41164:	8880400c 	andi	r2,r17,256
   41168:	1001761e 	bne	r2,zero,41744 <___vfprintf_internal_r+0xe48>
   4116c:	d8811f17 	ldw	r2,1148(sp)
   41170:	db013117 	ldw	r12,1220(sp)
   41174:	1c87883a 	add	r3,r3,r18
   41178:	10800044 	addi	r2,r2,1
   4117c:	43000015 	stw	r12,0(r8)
   41180:	44800115 	stw	r18,4(r8)
   41184:	d8c12015 	stw	r3,1152(sp)
   41188:	d8811f15 	stw	r2,1148(sp)
   4118c:	010001c4 	movi	r4,7
   41190:	20822616 	blt	r4,r2,41a2c <___vfprintf_internal_r+0x1130>
   41194:	42000204 	addi	r8,r8,8
   41198:	8c40010c 	andi	r17,r17,4
   4119c:	88003126 	beq	r17,zero,41264 <___vfprintf_internal_r+0x968>
   411a0:	db012e17 	ldw	r12,1208(sp)
   411a4:	dac12b17 	ldw	r11,1196(sp)
   411a8:	62e1c83a 	sub	r16,r12,r11
   411ac:	04002d0e 	bge	zero,r16,41264 <___vfprintf_internal_r+0x968>
   411b0:	04400404 	movi	r17,16
   411b4:	d8811f17 	ldw	r2,1148(sp)
   411b8:	8c04df0e 	bge	r17,r16,42538 <___vfprintf_internal_r+0x1c3c>
   411bc:	01000174 	movhi	r4,5
   411c0:	211e7c84 	addi	r4,r4,31218
   411c4:	d9013615 	stw	r4,1240(sp)
   411c8:	048001c4 	movi	r18,7
   411cc:	00000306 	br	411dc <___vfprintf_internal_r+0x8e0>
   411d0:	843ffc04 	addi	r16,r16,-16
   411d4:	42000204 	addi	r8,r8,8
   411d8:	8c00130e 	bge	r17,r16,41228 <___vfprintf_internal_r+0x92c>
   411dc:	01400174 	movhi	r5,5
   411e0:	18c00404 	addi	r3,r3,16
   411e4:	10800044 	addi	r2,r2,1
   411e8:	295e7c84 	addi	r5,r5,31218
   411ec:	41400015 	stw	r5,0(r8)
   411f0:	44400115 	stw	r17,4(r8)
   411f4:	d8c12015 	stw	r3,1152(sp)
   411f8:	d8811f15 	stw	r2,1148(sp)
   411fc:	90bff40e 	bge	r18,r2,411d0 <__alt_data_end+0xfffd0490>
   41200:	b009883a 	mov	r4,r22
   41204:	b80b883a 	mov	r5,r23
   41208:	d9811e04 	addi	r6,sp,1144
   4120c:	0047b440 	call	47b44 <__sprint_r>
   41210:	103ed11e 	bne	r2,zero,40d58 <__alt_data_end+0xfffd0018>
   41214:	843ffc04 	addi	r16,r16,-16
   41218:	d8c12017 	ldw	r3,1152(sp)
   4121c:	d8811f17 	ldw	r2,1148(sp)
   41220:	da000404 	addi	r8,sp,16
   41224:	8c3fed16 	blt	r17,r16,411dc <__alt_data_end+0xfffd049c>
   41228:	dac13617 	ldw	r11,1240(sp)
   4122c:	1c07883a 	add	r3,r3,r16
   41230:	10800044 	addi	r2,r2,1
   41234:	42c00015 	stw	r11,0(r8)
   41238:	44000115 	stw	r16,4(r8)
   4123c:	d8c12015 	stw	r3,1152(sp)
   41240:	d8811f15 	stw	r2,1148(sp)
   41244:	010001c4 	movi	r4,7
   41248:	2080060e 	bge	r4,r2,41264 <___vfprintf_internal_r+0x968>
   4124c:	b009883a 	mov	r4,r22
   41250:	b80b883a 	mov	r5,r23
   41254:	d9811e04 	addi	r6,sp,1144
   41258:	0047b440 	call	47b44 <__sprint_r>
   4125c:	103ebe1e 	bne	r2,zero,40d58 <__alt_data_end+0xfffd0018>
   41260:	d8c12017 	ldw	r3,1152(sp)
   41264:	d8812b17 	ldw	r2,1196(sp)
   41268:	db012e17 	ldw	r12,1208(sp)
   4126c:	1300010e 	bge	r2,r12,41274 <___vfprintf_internal_r+0x978>
   41270:	6005883a 	mov	r2,r12
   41274:	dac12f17 	ldw	r11,1212(sp)
   41278:	5897883a 	add	r11,r11,r2
   4127c:	dac12f15 	stw	r11,1212(sp)
   41280:	1801f21e 	bne	r3,zero,41a4c <___vfprintf_internal_r+0x1150>
   41284:	d8011f15 	stw	zero,1148(sp)
   41288:	da000404 	addi	r8,sp,16
   4128c:	003dd806 	br	409f0 <__alt_data_end+0xfffcfcb0>
   41290:	8c400414 	ori	r17,r17,16
   41294:	d8c12a15 	stw	r3,1192(sp)
   41298:	88c0080c 	andi	r3,r17,32
   4129c:	d8812d17 	ldw	r2,1204(sp)
   412a0:	18004626 	beq	r3,zero,413bc <___vfprintf_internal_r+0xac0>
   412a4:	dac12d17 	ldw	r11,1204(sp)
   412a8:	14c00017 	ldw	r19,0(r2)
   412ac:	17000117 	ldw	fp,4(r2)
   412b0:	5ac00204 	addi	r11,r11,8
   412b4:	dac12d15 	stw	r11,1204(sp)
   412b8:	00800044 	movi	r2,1
   412bc:	9f06b03a 	or	r3,r19,fp
   412c0:	003f0006 	br	40ec4 <__alt_data_end+0xfffd0184>
   412c4:	1805883a 	mov	r2,r3
   412c8:	d8012e15 	stw	zero,1208(sp)
   412cc:	82fff404 	addi	r11,r16,-48
   412d0:	0019883a 	mov	r12,zero
   412d4:	14000007 	ldb	r16,0(r2)
   412d8:	630002a4 	muli	r12,r12,10
   412dc:	18c00044 	addi	r3,r3,1
   412e0:	1805883a 	mov	r2,r3
   412e4:	62d9883a 	add	r12,r12,r11
   412e8:	82fff404 	addi	r11,r16,-48
   412ec:	2afff92e 	bgeu	r5,r11,412d4 <__alt_data_end+0xfffd0594>
   412f0:	db012e15 	stw	r12,1208(sp)
   412f4:	003de906 	br	40a9c <__alt_data_end+0xfffcfd5c>
   412f8:	8c400414 	ori	r17,r17,16
   412fc:	d8c12a15 	stw	r3,1192(sp)
   41300:	d9812785 	stb	r6,1182(sp)
   41304:	8880080c 	andi	r2,r17,32
   41308:	d8c12d17 	ldw	r3,1204(sp)
   4130c:	10007a26 	beq	r2,zero,414f8 <___vfprintf_internal_r+0xbfc>
   41310:	db012d17 	ldw	r12,1204(sp)
   41314:	18800117 	ldw	r2,4(r3)
   41318:	1cc00017 	ldw	r19,0(r3)
   4131c:	63000204 	addi	r12,r12,8
   41320:	db012d15 	stw	r12,1204(sp)
   41324:	1039883a 	mov	fp,r2
   41328:	10031016 	blt	r2,zero,41f6c <___vfprintf_internal_r+0x1670>
   4132c:	dd412783 	ldbu	r21,1182(sp)
   41330:	da413215 	stw	r9,1224(sp)
   41334:	00800044 	movi	r2,1
   41338:	9f06b03a 	or	r3,r19,fp
   4133c:	003ee406 	br	40ed0 <__alt_data_end+0xfffd0190>
   41340:	03000174 	movhi	r12,5
   41344:	631e6c04 	addi	r12,r12,31152
   41348:	d8c12a15 	stw	r3,1192(sp)
   4134c:	d9812785 	stb	r6,1182(sp)
   41350:	db013b15 	stw	r12,1260(sp)
   41354:	88c0080c 	andi	r3,r17,32
   41358:	d8812d17 	ldw	r2,1204(sp)
   4135c:	18002b26 	beq	r3,zero,4140c <___vfprintf_internal_r+0xb10>
   41360:	dac12d17 	ldw	r11,1204(sp)
   41364:	14c00017 	ldw	r19,0(r2)
   41368:	17000117 	ldw	fp,4(r2)
   4136c:	5ac00204 	addi	r11,r11,8
   41370:	dac12d15 	stw	r11,1204(sp)
   41374:	8880004c 	andi	r2,r17,1
   41378:	10025b26 	beq	r2,zero,41ce8 <___vfprintf_internal_r+0x13ec>
   4137c:	9f06b03a 	or	r3,r19,fp
   41380:	18037026 	beq	r3,zero,42144 <___vfprintf_internal_r+0x1848>
   41384:	00800c04 	movi	r2,48
   41388:	d8812705 	stb	r2,1180(sp)
   4138c:	dc012745 	stb	r16,1181(sp)
   41390:	8c400094 	ori	r17,r17,2
   41394:	00800084 	movi	r2,2
   41398:	003eca06 	br	40ec4 <__alt_data_end+0xfffd0184>
   4139c:	8c400814 	ori	r17,r17,32
   413a0:	1805883a 	mov	r2,r3
   413a4:	1c000007 	ldb	r16,0(r3)
   413a8:	003dbb06 	br	40a98 <__alt_data_end+0xfffcfd58>
   413ac:	d8c12a15 	stw	r3,1192(sp)
   413b0:	88c0080c 	andi	r3,r17,32
   413b4:	d8812d17 	ldw	r2,1204(sp)
   413b8:	183fba1e 	bne	r3,zero,412a4 <__alt_data_end+0xfffd0564>
   413bc:	88c0040c 	andi	r3,r17,16
   413c0:	18024c1e 	bne	r3,zero,41cf4 <___vfprintf_internal_r+0x13f8>
   413c4:	88c0100c 	andi	r3,r17,64
   413c8:	18024a26 	beq	r3,zero,41cf4 <___vfprintf_internal_r+0x13f8>
   413cc:	dac12d17 	ldw	r11,1204(sp)
   413d0:	14c0000b 	ldhu	r19,0(r2)
   413d4:	0039883a 	mov	fp,zero
   413d8:	5ac00104 	addi	r11,r11,4
   413dc:	dac12d15 	stw	r11,1204(sp)
   413e0:	00800044 	movi	r2,1
   413e4:	9807883a 	mov	r3,r19
   413e8:	003eb606 	br	40ec4 <__alt_data_end+0xfffd0184>
   413ec:	00800174 	movhi	r2,5
   413f0:	109e7104 	addi	r2,r2,31172
   413f4:	d8c12a15 	stw	r3,1192(sp)
   413f8:	d8813b15 	stw	r2,1260(sp)
   413fc:	d9812785 	stb	r6,1182(sp)
   41400:	88c0080c 	andi	r3,r17,32
   41404:	d8812d17 	ldw	r2,1204(sp)
   41408:	183fd51e 	bne	r3,zero,41360 <__alt_data_end+0xfffd0620>
   4140c:	88c0040c 	andi	r3,r17,16
   41410:	18034126 	beq	r3,zero,42118 <___vfprintf_internal_r+0x181c>
   41414:	db012d17 	ldw	r12,1204(sp)
   41418:	14c00017 	ldw	r19,0(r2)
   4141c:	0039883a 	mov	fp,zero
   41420:	63000104 	addi	r12,r12,4
   41424:	db012d15 	stw	r12,1204(sp)
   41428:	003fd206 	br	41374 <__alt_data_end+0xfffd0634>
   4142c:	1c000007 	ldb	r16,0(r3)
   41430:	81c3d626 	beq	r16,r7,4238c <___vfprintf_internal_r+0x1a90>
   41434:	8c400414 	ori	r17,r17,16
   41438:	1805883a 	mov	r2,r3
   4143c:	003d9606 	br	40a98 <__alt_data_end+0xfffcfd58>
   41440:	d8c12a15 	stw	r3,1192(sp)
   41444:	d9812785 	stb	r6,1182(sp)
   41448:	8880080c 	andi	r2,r17,32
   4144c:	10033f26 	beq	r2,zero,4214c <___vfprintf_internal_r+0x1850>
   41450:	db012d17 	ldw	r12,1204(sp)
   41454:	dac12f17 	ldw	r11,1212(sp)
   41458:	60800017 	ldw	r2,0(r12)
   4145c:	5807d7fa 	srai	r3,r11,31
   41460:	63000104 	addi	r12,r12,4
   41464:	db012d15 	stw	r12,1204(sp)
   41468:	12c00015 	stw	r11,0(r2)
   4146c:	10c00115 	stw	r3,4(r2)
   41470:	003d5f06 	br	409f0 <__alt_data_end+0xfffcfcb0>
   41474:	d8c12a15 	stw	r3,1192(sp)
   41478:	88c0080c 	andi	r3,r17,32
   4147c:	d8812d17 	ldw	r2,1204(sp)
   41480:	183e891e 	bne	r3,zero,40ea8 <__alt_data_end+0xfffd0168>
   41484:	88c0040c 	andi	r3,r17,16
   41488:	1801ea1e 	bne	r3,zero,41c34 <___vfprintf_internal_r+0x1338>
   4148c:	88c0100c 	andi	r3,r17,64
   41490:	1801e826 	beq	r3,zero,41c34 <___vfprintf_internal_r+0x1338>
   41494:	db012d17 	ldw	r12,1204(sp)
   41498:	14c0000b 	ldhu	r19,0(r2)
   4149c:	0039883a 	mov	fp,zero
   414a0:	63000104 	addi	r12,r12,4
   414a4:	db012d15 	stw	r12,1204(sp)
   414a8:	0005883a 	mov	r2,zero
   414ac:	9807883a 	mov	r3,r19
   414b0:	003e8406 	br	40ec4 <__alt_data_end+0xfffd0184>
   414b4:	30803fcc 	andi	r2,r6,255
   414b8:	1080201c 	xori	r2,r2,128
   414bc:	10bfe004 	addi	r2,r2,-128
   414c0:	10031d1e 	bne	r2,zero,42138 <___vfprintf_internal_r+0x183c>
   414c4:	1805883a 	mov	r2,r3
   414c8:	01800804 	movi	r6,32
   414cc:	1c000007 	ldb	r16,0(r3)
   414d0:	003d7106 	br	40a98 <__alt_data_end+0xfffcfd58>
   414d4:	8c400054 	ori	r17,r17,1
   414d8:	1805883a 	mov	r2,r3
   414dc:	1c000007 	ldb	r16,0(r3)
   414e0:	003d6d06 	br	40a98 <__alt_data_end+0xfffcfd58>
   414e4:	d8c12a15 	stw	r3,1192(sp)
   414e8:	d9812785 	stb	r6,1182(sp)
   414ec:	8880080c 	andi	r2,r17,32
   414f0:	d8c12d17 	ldw	r3,1204(sp)
   414f4:	103f861e 	bne	r2,zero,41310 <__alt_data_end+0xfffd05d0>
   414f8:	8880040c 	andi	r2,r17,16
   414fc:	1001f31e 	bne	r2,zero,41ccc <___vfprintf_internal_r+0x13d0>
   41500:	8880100c 	andi	r2,r17,64
   41504:	1001f126 	beq	r2,zero,41ccc <___vfprintf_internal_r+0x13d0>
   41508:	1cc0000f 	ldh	r19,0(r3)
   4150c:	db012d17 	ldw	r12,1204(sp)
   41510:	9839d7fa 	srai	fp,r19,31
   41514:	63000104 	addi	r12,r12,4
   41518:	db012d15 	stw	r12,1204(sp)
   4151c:	e005883a 	mov	r2,fp
   41520:	003f8106 	br	41328 <__alt_data_end+0xfffd05e8>
   41524:	8c401014 	ori	r17,r17,64
   41528:	1805883a 	mov	r2,r3
   4152c:	1c000007 	ldb	r16,0(r3)
   41530:	003d5906 	br	40a98 <__alt_data_end+0xfffcfd58>
   41534:	db012d17 	ldw	r12,1204(sp)
   41538:	d8c12a15 	stw	r3,1192(sp)
   4153c:	00c00044 	movi	r3,1
   41540:	60800017 	ldw	r2,0(r12)
   41544:	63000104 	addi	r12,r12,4
   41548:	d8c12b15 	stw	r3,1196(sp)
   4154c:	d8012785 	stb	zero,1182(sp)
   41550:	d8810405 	stb	r2,1040(sp)
   41554:	db012d15 	stw	r12,1204(sp)
   41558:	dac10404 	addi	r11,sp,1040
   4155c:	1825883a 	mov	r18,r3
   41560:	d8013215 	stw	zero,1224(sp)
   41564:	d8013415 	stw	zero,1232(sp)
   41568:	dac13115 	stw	r11,1220(sp)
   4156c:	0005883a 	mov	r2,zero
   41570:	003e7d06 	br	40f68 <__alt_data_end+0xfffd0228>
   41574:	db012d17 	ldw	r12,1204(sp)
   41578:	00800c04 	movi	r2,48
   4157c:	d8812705 	stb	r2,1180(sp)
   41580:	64c00017 	ldw	r19,0(r12)
   41584:	00801e04 	movi	r2,120
   41588:	d8812745 	stb	r2,1181(sp)
   4158c:	00800174 	movhi	r2,5
   41590:	109e7104 	addi	r2,r2,31172
   41594:	63000104 	addi	r12,r12,4
   41598:	d8c12a15 	stw	r3,1192(sp)
   4159c:	d8813b15 	stw	r2,1260(sp)
   415a0:	0039883a 	mov	fp,zero
   415a4:	8c400094 	ori	r17,r17,2
   415a8:	db012d15 	stw	r12,1204(sp)
   415ac:	00800084 	movi	r2,2
   415b0:	04001e04 	movi	r16,120
   415b4:	9807883a 	mov	r3,r19
   415b8:	003e4206 	br	40ec4 <__alt_data_end+0xfffd0184>
   415bc:	dac12d17 	ldw	r11,1204(sp)
   415c0:	db012d17 	ldw	r12,1204(sp)
   415c4:	d8c12a15 	stw	r3,1192(sp)
   415c8:	5ac00017 	ldw	r11,0(r11)
   415cc:	d8012785 	stb	zero,1182(sp)
   415d0:	64c00104 	addi	r19,r12,4
   415d4:	dac13115 	stw	r11,1220(sp)
   415d8:	5803e826 	beq	r11,zero,4257c <___vfprintf_internal_r+0x1c80>
   415dc:	d9013117 	ldw	r4,1220(sp)
   415e0:	48037a16 	blt	r9,zero,423cc <___vfprintf_internal_r+0x1ad0>
   415e4:	480d883a 	mov	r6,r9
   415e8:	000b883a 	mov	r5,zero
   415ec:	da013f15 	stw	r8,1276(sp)
   415f0:	da413e15 	stw	r9,1272(sp)
   415f4:	0045dd40 	call	45dd4 <memchr>
   415f8:	da013f17 	ldw	r8,1276(sp)
   415fc:	da413e17 	ldw	r9,1272(sp)
   41600:	10044426 	beq	r2,zero,42714 <___vfprintf_internal_r+0x1e18>
   41604:	d8c13117 	ldw	r3,1220(sp)
   41608:	10e5c83a 	sub	r18,r2,r3
   4160c:	4c834416 	blt	r9,r18,42320 <___vfprintf_internal_r+0x1a24>
   41610:	9005883a 	mov	r2,r18
   41614:	90037216 	blt	r18,zero,423e0 <___vfprintf_internal_r+0x1ae4>
   41618:	dd412783 	ldbu	r21,1182(sp)
   4161c:	d8812b15 	stw	r2,1196(sp)
   41620:	dcc12d15 	stw	r19,1204(sp)
   41624:	d8013215 	stw	zero,1224(sp)
   41628:	d8013415 	stw	zero,1232(sp)
   4162c:	003e4706 	br	40f4c <__alt_data_end+0xfffd020c>
   41630:	dac12d17 	ldw	r11,1204(sp)
   41634:	db012d17 	ldw	r12,1204(sp)
   41638:	5ac00017 	ldw	r11,0(r11)
   4163c:	dac12e15 	stw	r11,1208(sp)
   41640:	62c00104 	addi	r11,r12,4
   41644:	db012e17 	ldw	r12,1208(sp)
   41648:	60034a16 	blt	r12,zero,42374 <___vfprintf_internal_r+0x1a78>
   4164c:	dac12d15 	stw	r11,1204(sp)
   41650:	1805883a 	mov	r2,r3
   41654:	1c000007 	ldb	r16,0(r3)
   41658:	003d0f06 	br	40a98 <__alt_data_end+0xfffcfd58>
   4165c:	1805883a 	mov	r2,r3
   41660:	01800ac4 	movi	r6,43
   41664:	1c000007 	ldb	r16,0(r3)
   41668:	003d0b06 	br	40a98 <__alt_data_end+0xfffcfd58>
   4166c:	d8c12a15 	stw	r3,1192(sp)
   41670:	d9812785 	stb	r6,1182(sp)
   41674:	803db226 	beq	r16,zero,40d40 <__alt_data_end+0xfffd0000>
   41678:	00c00044 	movi	r3,1
   4167c:	d8c12b15 	stw	r3,1196(sp)
   41680:	dc010405 	stb	r16,1040(sp)
   41684:	d8012785 	stb	zero,1182(sp)
   41688:	003fb306 	br	41558 <__alt_data_end+0xfffd0818>
   4168c:	d8c12017 	ldw	r3,1152(sp)
   41690:	003e6d06 	br	41048 <__alt_data_end+0xfffd0308>
   41694:	10803fcc 	andi	r2,r2,255
   41698:	00c00044 	movi	r3,1
   4169c:	10fe141e 	bne	r2,r3,40ef0 <__alt_data_end+0xfffd01b0>
   416a0:	e000021e 	bne	fp,zero,416ac <___vfprintf_internal_r+0xdb0>
   416a4:	00800244 	movi	r2,9
   416a8:	14c0202e 	bgeu	r2,r19,4172c <___vfprintf_internal_r+0xe30>
   416ac:	dc012b15 	stw	r16,1196(sp)
   416b0:	dc412c15 	stw	r17,1200(sp)
   416b4:	9821883a 	mov	r16,r19
   416b8:	e023883a 	mov	r17,fp
   416bc:	dc810e04 	addi	r18,sp,1080
   416c0:	4027883a 	mov	r19,r8
   416c4:	4839883a 	mov	fp,r9
   416c8:	8009883a 	mov	r4,r16
   416cc:	880b883a 	mov	r5,r17
   416d0:	01800284 	movi	r6,10
   416d4:	000f883a 	mov	r7,zero
   416d8:	0049dd40 	call	49dd4 <__umoddi3>
   416dc:	10800c04 	addi	r2,r2,48
   416e0:	94bfffc4 	addi	r18,r18,-1
   416e4:	8009883a 	mov	r4,r16
   416e8:	880b883a 	mov	r5,r17
   416ec:	01800284 	movi	r6,10
   416f0:	000f883a 	mov	r7,zero
   416f4:	90800005 	stb	r2,0(r18)
   416f8:	00498140 	call	49814 <__udivdi3>
   416fc:	1021883a 	mov	r16,r2
   41700:	10c4b03a 	or	r2,r2,r3
   41704:	1823883a 	mov	r17,r3
   41708:	103fef1e 	bne	r2,zero,416c8 <__alt_data_end+0xfffd0988>
   4170c:	dac12817 	ldw	r11,1184(sp)
   41710:	dc813115 	stw	r18,1220(sp)
   41714:	dc012b17 	ldw	r16,1196(sp)
   41718:	9811883a 	mov	r8,r19
   4171c:	dc412c17 	ldw	r17,1200(sp)
   41720:	e013883a 	mov	r9,fp
   41724:	5ca5c83a 	sub	r18,r11,r18
   41728:	003e0306 	br	40f38 <__alt_data_end+0xfffd01f8>
   4172c:	9cc00c04 	addi	r19,r19,48
   41730:	d8c10dc4 	addi	r3,sp,1079
   41734:	dcc10dc5 	stb	r19,1079(sp)
   41738:	dc813c17 	ldw	r18,1264(sp)
   4173c:	d8c13115 	stw	r3,1220(sp)
   41740:	003dfd06 	br	40f38 <__alt_data_end+0xfffd01f8>
   41744:	00801944 	movi	r2,101
   41748:	1400710e 	bge	r2,r16,41910 <___vfprintf_internal_r+0x1014>
   4174c:	d9013717 	ldw	r4,1244(sp)
   41750:	d9413917 	ldw	r5,1252(sp)
   41754:	000d883a 	mov	r6,zero
   41758:	000f883a 	mov	r7,zero
   4175c:	d8c13d15 	stw	r3,1268(sp)
   41760:	da013f15 	stw	r8,1276(sp)
   41764:	004b4cc0 	call	4b4cc <__eqdf2>
   41768:	d8c13d17 	ldw	r3,1268(sp)
   4176c:	da013f17 	ldw	r8,1276(sp)
   41770:	1000ef1e 	bne	r2,zero,41b30 <___vfprintf_internal_r+0x1234>
   41774:	d8811f17 	ldw	r2,1148(sp)
   41778:	01000174 	movhi	r4,5
   4177c:	211e7804 	addi	r4,r4,31200
   41780:	18c00044 	addi	r3,r3,1
   41784:	10800044 	addi	r2,r2,1
   41788:	41000015 	stw	r4,0(r8)
   4178c:	01000044 	movi	r4,1
   41790:	41000115 	stw	r4,4(r8)
   41794:	d8c12015 	stw	r3,1152(sp)
   41798:	d8811f15 	stw	r2,1148(sp)
   4179c:	010001c4 	movi	r4,7
   417a0:	20828e16 	blt	r4,r2,421dc <___vfprintf_internal_r+0x18e0>
   417a4:	42000204 	addi	r8,r8,8
   417a8:	d8812617 	ldw	r2,1176(sp)
   417ac:	dac13317 	ldw	r11,1228(sp)
   417b0:	12c00216 	blt	r2,r11,417bc <___vfprintf_internal_r+0xec0>
   417b4:	8880004c 	andi	r2,r17,1
   417b8:	103e7726 	beq	r2,zero,41198 <__alt_data_end+0xfffd0458>
   417bc:	db013817 	ldw	r12,1248(sp)
   417c0:	d8811f17 	ldw	r2,1148(sp)
   417c4:	dac13517 	ldw	r11,1236(sp)
   417c8:	1b07883a 	add	r3,r3,r12
   417cc:	10800044 	addi	r2,r2,1
   417d0:	42c00015 	stw	r11,0(r8)
   417d4:	43000115 	stw	r12,4(r8)
   417d8:	d8c12015 	stw	r3,1152(sp)
   417dc:	d8811f15 	stw	r2,1148(sp)
   417e0:	010001c4 	movi	r4,7
   417e4:	2082ed16 	blt	r4,r2,4239c <___vfprintf_internal_r+0x1aa0>
   417e8:	42000204 	addi	r8,r8,8
   417ec:	db013317 	ldw	r12,1228(sp)
   417f0:	643fffc4 	addi	r16,r12,-1
   417f4:	043e680e 	bge	zero,r16,41198 <__alt_data_end+0xfffd0458>
   417f8:	04800404 	movi	r18,16
   417fc:	d8811f17 	ldw	r2,1148(sp)
   41800:	94007e0e 	bge	r18,r16,419fc <___vfprintf_internal_r+0x1100>
   41804:	01400174 	movhi	r5,5
   41808:	295e7884 	addi	r5,r5,31202
   4180c:	d9412c15 	stw	r5,1200(sp)
   41810:	054001c4 	movi	r21,7
   41814:	00000306 	br	41824 <___vfprintf_internal_r+0xf28>
   41818:	42000204 	addi	r8,r8,8
   4181c:	843ffc04 	addi	r16,r16,-16
   41820:	9400790e 	bge	r18,r16,41a08 <___vfprintf_internal_r+0x110c>
   41824:	18c00404 	addi	r3,r3,16
   41828:	10800044 	addi	r2,r2,1
   4182c:	45000015 	stw	r20,0(r8)
   41830:	44800115 	stw	r18,4(r8)
   41834:	d8c12015 	stw	r3,1152(sp)
   41838:	d8811f15 	stw	r2,1148(sp)
   4183c:	a8bff60e 	bge	r21,r2,41818 <__alt_data_end+0xfffd0ad8>
   41840:	b009883a 	mov	r4,r22
   41844:	b80b883a 	mov	r5,r23
   41848:	d9811e04 	addi	r6,sp,1144
   4184c:	0047b440 	call	47b44 <__sprint_r>
   41850:	103d411e 	bne	r2,zero,40d58 <__alt_data_end+0xfffd0018>
   41854:	d8c12017 	ldw	r3,1152(sp)
   41858:	d8811f17 	ldw	r2,1148(sp)
   4185c:	da000404 	addi	r8,sp,16
   41860:	003fee06 	br	4181c <__alt_data_end+0xfffd0adc>
   41864:	dac12e17 	ldw	r11,1208(sp)
   41868:	db012b17 	ldw	r12,1196(sp)
   4186c:	5b2bc83a 	sub	r21,r11,r12
   41870:	057e130e 	bge	zero,r21,410c0 <__alt_data_end+0xfffd0380>
   41874:	07000404 	movi	fp,16
   41878:	d8811f17 	ldw	r2,1148(sp)
   4187c:	e543640e 	bge	fp,r21,42610 <___vfprintf_internal_r+0x1d14>
   41880:	01400174 	movhi	r5,5
   41884:	295e7884 	addi	r5,r5,31202
   41888:	d9412c15 	stw	r5,1200(sp)
   4188c:	04c001c4 	movi	r19,7
   41890:	00000306 	br	418a0 <___vfprintf_internal_r+0xfa4>
   41894:	ad7ffc04 	addi	r21,r21,-16
   41898:	42000204 	addi	r8,r8,8
   4189c:	e540110e 	bge	fp,r21,418e4 <___vfprintf_internal_r+0xfe8>
   418a0:	18c00404 	addi	r3,r3,16
   418a4:	10800044 	addi	r2,r2,1
   418a8:	45000015 	stw	r20,0(r8)
   418ac:	47000115 	stw	fp,4(r8)
   418b0:	d8c12015 	stw	r3,1152(sp)
   418b4:	d8811f15 	stw	r2,1148(sp)
   418b8:	98bff60e 	bge	r19,r2,41894 <__alt_data_end+0xfffd0b54>
   418bc:	b009883a 	mov	r4,r22
   418c0:	b80b883a 	mov	r5,r23
   418c4:	d9811e04 	addi	r6,sp,1144
   418c8:	0047b440 	call	47b44 <__sprint_r>
   418cc:	103d221e 	bne	r2,zero,40d58 <__alt_data_end+0xfffd0018>
   418d0:	ad7ffc04 	addi	r21,r21,-16
   418d4:	d8c12017 	ldw	r3,1152(sp)
   418d8:	d8811f17 	ldw	r2,1148(sp)
   418dc:	da000404 	addi	r8,sp,16
   418e0:	e57fef16 	blt	fp,r21,418a0 <__alt_data_end+0xfffd0b60>
   418e4:	dac12c17 	ldw	r11,1200(sp)
   418e8:	1d47883a 	add	r3,r3,r21
   418ec:	10800044 	addi	r2,r2,1
   418f0:	42c00015 	stw	r11,0(r8)
   418f4:	45400115 	stw	r21,4(r8)
   418f8:	d8c12015 	stw	r3,1152(sp)
   418fc:	d8811f15 	stw	r2,1148(sp)
   41900:	010001c4 	movi	r4,7
   41904:	20819116 	blt	r4,r2,41f4c <___vfprintf_internal_r+0x1650>
   41908:	42000204 	addi	r8,r8,8
   4190c:	003dec06 	br	410c0 <__alt_data_end+0xfffd0380>
   41910:	db013317 	ldw	r12,1228(sp)
   41914:	00800044 	movi	r2,1
   41918:	18c00044 	addi	r3,r3,1
   4191c:	1301530e 	bge	r2,r12,41e6c <___vfprintf_internal_r+0x1570>
   41920:	dc011f17 	ldw	r16,1148(sp)
   41924:	dac13117 	ldw	r11,1220(sp)
   41928:	00800044 	movi	r2,1
   4192c:	84000044 	addi	r16,r16,1
   41930:	40800115 	stw	r2,4(r8)
   41934:	42c00015 	stw	r11,0(r8)
   41938:	d8c12015 	stw	r3,1152(sp)
   4193c:	dc011f15 	stw	r16,1148(sp)
   41940:	008001c4 	movi	r2,7
   41944:	14016b16 	blt	r2,r16,41ef4 <___vfprintf_internal_r+0x15f8>
   41948:	42000204 	addi	r8,r8,8
   4194c:	db013817 	ldw	r12,1248(sp)
   41950:	dac13517 	ldw	r11,1236(sp)
   41954:	84000044 	addi	r16,r16,1
   41958:	1b07883a 	add	r3,r3,r12
   4195c:	42c00015 	stw	r11,0(r8)
   41960:	43000115 	stw	r12,4(r8)
   41964:	d8c12015 	stw	r3,1152(sp)
   41968:	dc011f15 	stw	r16,1148(sp)
   4196c:	008001c4 	movi	r2,7
   41970:	14016916 	blt	r2,r16,41f18 <___vfprintf_internal_r+0x161c>
   41974:	44800204 	addi	r18,r8,8
   41978:	d9013717 	ldw	r4,1244(sp)
   4197c:	d9413917 	ldw	r5,1252(sp)
   41980:	000d883a 	mov	r6,zero
   41984:	000f883a 	mov	r7,zero
   41988:	d8c13d15 	stw	r3,1268(sp)
   4198c:	004b4cc0 	call	4b4cc <__eqdf2>
   41990:	d8c13d17 	ldw	r3,1268(sp)
   41994:	db013317 	ldw	r12,1228(sp)
   41998:	1000ae26 	beq	r2,zero,41c54 <___vfprintf_internal_r+0x1358>
   4199c:	dac13117 	ldw	r11,1220(sp)
   419a0:	60bfffc4 	addi	r2,r12,-1
   419a4:	1887883a 	add	r3,r3,r2
   419a8:	59000044 	addi	r4,r11,1
   419ac:	84000044 	addi	r16,r16,1
   419b0:	90800115 	stw	r2,4(r18)
   419b4:	91000015 	stw	r4,0(r18)
   419b8:	d8c12015 	stw	r3,1152(sp)
   419bc:	dc011f15 	stw	r16,1148(sp)
   419c0:	008001c4 	movi	r2,7
   419c4:	14014216 	blt	r2,r16,41ed0 <___vfprintf_internal_r+0x15d4>
   419c8:	94800204 	addi	r18,r18,8
   419cc:	dac13a17 	ldw	r11,1256(sp)
   419d0:	dd4122c4 	addi	r21,sp,1163
   419d4:	84000044 	addi	r16,r16,1
   419d8:	58c7883a 	add	r3,r11,r3
   419dc:	95400015 	stw	r21,0(r18)
   419e0:	92c00115 	stw	r11,4(r18)
   419e4:	d8c12015 	stw	r3,1152(sp)
   419e8:	dc011f15 	stw	r16,1148(sp)
   419ec:	008001c4 	movi	r2,7
   419f0:	14000e16 	blt	r2,r16,41a2c <___vfprintf_internal_r+0x1130>
   419f4:	92000204 	addi	r8,r18,8
   419f8:	003de706 	br	41198 <__alt_data_end+0xfffd0458>
   419fc:	01000174 	movhi	r4,5
   41a00:	211e7884 	addi	r4,r4,31202
   41a04:	d9012c15 	stw	r4,1200(sp)
   41a08:	dac12c17 	ldw	r11,1200(sp)
   41a0c:	1c07883a 	add	r3,r3,r16
   41a10:	44000115 	stw	r16,4(r8)
   41a14:	42c00015 	stw	r11,0(r8)
   41a18:	10800044 	addi	r2,r2,1
   41a1c:	d8c12015 	stw	r3,1152(sp)
   41a20:	d8811f15 	stw	r2,1148(sp)
   41a24:	010001c4 	movi	r4,7
   41a28:	20bdda0e 	bge	r4,r2,41194 <__alt_data_end+0xfffd0454>
   41a2c:	b009883a 	mov	r4,r22
   41a30:	b80b883a 	mov	r5,r23
   41a34:	d9811e04 	addi	r6,sp,1144
   41a38:	0047b440 	call	47b44 <__sprint_r>
   41a3c:	103cc61e 	bne	r2,zero,40d58 <__alt_data_end+0xfffd0018>
   41a40:	d8c12017 	ldw	r3,1152(sp)
   41a44:	da000404 	addi	r8,sp,16
   41a48:	003dd306 	br	41198 <__alt_data_end+0xfffd0458>
   41a4c:	b009883a 	mov	r4,r22
   41a50:	b80b883a 	mov	r5,r23
   41a54:	d9811e04 	addi	r6,sp,1144
   41a58:	0047b440 	call	47b44 <__sprint_r>
   41a5c:	103e0926 	beq	r2,zero,41284 <__alt_data_end+0xfffd0544>
   41a60:	003cbd06 	br	40d58 <__alt_data_end+0xfffd0018>
   41a64:	10803fcc 	andi	r2,r2,255
   41a68:	1000651e 	bne	r2,zero,41c00 <___vfprintf_internal_r+0x1304>
   41a6c:	8880004c 	andi	r2,r17,1
   41a70:	10013226 	beq	r2,zero,41f3c <___vfprintf_internal_r+0x1640>
   41a74:	00800c04 	movi	r2,48
   41a78:	d8c10dc4 	addi	r3,sp,1079
   41a7c:	d8810dc5 	stb	r2,1079(sp)
   41a80:	dc813c17 	ldw	r18,1264(sp)
   41a84:	d8c13115 	stw	r3,1220(sp)
   41a88:	003d2b06 	br	40f38 <__alt_data_end+0xfffd01f8>
   41a8c:	b009883a 	mov	r4,r22
   41a90:	b80b883a 	mov	r5,r23
   41a94:	d9811e04 	addi	r6,sp,1144
   41a98:	0047b440 	call	47b44 <__sprint_r>
   41a9c:	103cae1e 	bne	r2,zero,40d58 <__alt_data_end+0xfffd0018>
   41aa0:	d8c12017 	ldw	r3,1152(sp)
   41aa4:	da000404 	addi	r8,sp,16
   41aa8:	003dae06 	br	41164 <__alt_data_end+0xfffd0424>
   41aac:	b009883a 	mov	r4,r22
   41ab0:	b80b883a 	mov	r5,r23
   41ab4:	d9811e04 	addi	r6,sp,1144
   41ab8:	0047b440 	call	47b44 <__sprint_r>
   41abc:	103ca61e 	bne	r2,zero,40d58 <__alt_data_end+0xfffd0018>
   41ac0:	d8c12017 	ldw	r3,1152(sp)
   41ac4:	da000404 	addi	r8,sp,16
   41ac8:	003d6c06 	br	4107c <__alt_data_end+0xfffd033c>
   41acc:	b009883a 	mov	r4,r22
   41ad0:	b80b883a 	mov	r5,r23
   41ad4:	d9811e04 	addi	r6,sp,1144
   41ad8:	0047b440 	call	47b44 <__sprint_r>
   41adc:	103c9e1e 	bne	r2,zero,40d58 <__alt_data_end+0xfffd0018>
   41ae0:	d8c12017 	ldw	r3,1152(sp)
   41ae4:	da000404 	addi	r8,sp,16
   41ae8:	003d7206 	br	410b4 <__alt_data_end+0xfffd0374>
   41aec:	d9413b17 	ldw	r5,1260(sp)
   41af0:	d8c10e04 	addi	r3,sp,1080
   41af4:	988003cc 	andi	r2,r19,15
   41af8:	e008973a 	slli	r4,fp,28
   41afc:	2885883a 	add	r2,r5,r2
   41b00:	9826d13a 	srli	r19,r19,4
   41b04:	10800003 	ldbu	r2,0(r2)
   41b08:	e038d13a 	srli	fp,fp,4
   41b0c:	18ffffc4 	addi	r3,r3,-1
   41b10:	24e6b03a 	or	r19,r4,r19
   41b14:	18800005 	stb	r2,0(r3)
   41b18:	9f04b03a 	or	r2,r19,fp
   41b1c:	103ff51e 	bne	r2,zero,41af4 <__alt_data_end+0xfffd0db4>
   41b20:	db012817 	ldw	r12,1184(sp)
   41b24:	d8c13115 	stw	r3,1220(sp)
   41b28:	60e5c83a 	sub	r18,r12,r3
   41b2c:	003d0206 	br	40f38 <__alt_data_end+0xfffd01f8>
   41b30:	dc012617 	ldw	r16,1176(sp)
   41b34:	0401b10e 	bge	zero,r16,421fc <___vfprintf_internal_r+0x1900>
   41b38:	db013117 	ldw	r12,1220(sp)
   41b3c:	dac13317 	ldw	r11,1228(sp)
   41b40:	62e1883a 	add	r16,r12,r11
   41b44:	db013417 	ldw	r12,1232(sp)
   41b48:	5825883a 	mov	r18,r11
   41b4c:	62c0010e 	bge	r12,r11,41b54 <___vfprintf_internal_r+0x1258>
   41b50:	6025883a 	mov	r18,r12
   41b54:	04800b0e 	bge	zero,r18,41b84 <___vfprintf_internal_r+0x1288>
   41b58:	d8811f17 	ldw	r2,1148(sp)
   41b5c:	dac13117 	ldw	r11,1220(sp)
   41b60:	1c87883a 	add	r3,r3,r18
   41b64:	10800044 	addi	r2,r2,1
   41b68:	42c00015 	stw	r11,0(r8)
   41b6c:	44800115 	stw	r18,4(r8)
   41b70:	d8c12015 	stw	r3,1152(sp)
   41b74:	d8811f15 	stw	r2,1148(sp)
   41b78:	010001c4 	movi	r4,7
   41b7c:	20824f16 	blt	r4,r2,424bc <___vfprintf_internal_r+0x1bc0>
   41b80:	42000204 	addi	r8,r8,8
   41b84:	90024b16 	blt	r18,zero,424b4 <___vfprintf_internal_r+0x1bb8>
   41b88:	db013417 	ldw	r12,1232(sp)
   41b8c:	64a5c83a 	sub	r18,r12,r18
   41b90:	0480730e 	bge	zero,r18,41d60 <___vfprintf_internal_r+0x1464>
   41b94:	05400404 	movi	r21,16
   41b98:	d8811f17 	ldw	r2,1148(sp)
   41b9c:	ac817d0e 	bge	r21,r18,42194 <___vfprintf_internal_r+0x1898>
   41ba0:	01400174 	movhi	r5,5
   41ba4:	295e7884 	addi	r5,r5,31202
   41ba8:	d9412c15 	stw	r5,1200(sp)
   41bac:	070001c4 	movi	fp,7
   41bb0:	00000306 	br	41bc0 <___vfprintf_internal_r+0x12c4>
   41bb4:	42000204 	addi	r8,r8,8
   41bb8:	94bffc04 	addi	r18,r18,-16
   41bbc:	ac81780e 	bge	r21,r18,421a0 <___vfprintf_internal_r+0x18a4>
   41bc0:	18c00404 	addi	r3,r3,16
   41bc4:	10800044 	addi	r2,r2,1
   41bc8:	45000015 	stw	r20,0(r8)
   41bcc:	45400115 	stw	r21,4(r8)
   41bd0:	d8c12015 	stw	r3,1152(sp)
   41bd4:	d8811f15 	stw	r2,1148(sp)
   41bd8:	e0bff60e 	bge	fp,r2,41bb4 <__alt_data_end+0xfffd0e74>
   41bdc:	b009883a 	mov	r4,r22
   41be0:	b80b883a 	mov	r5,r23
   41be4:	d9811e04 	addi	r6,sp,1144
   41be8:	0047b440 	call	47b44 <__sprint_r>
   41bec:	103c5a1e 	bne	r2,zero,40d58 <__alt_data_end+0xfffd0018>
   41bf0:	d8c12017 	ldw	r3,1152(sp)
   41bf4:	d8811f17 	ldw	r2,1148(sp)
   41bf8:	da000404 	addi	r8,sp,16
   41bfc:	003fee06 	br	41bb8 <__alt_data_end+0xfffd0e78>
   41c00:	dac10e04 	addi	r11,sp,1080
   41c04:	0025883a 	mov	r18,zero
   41c08:	dac13115 	stw	r11,1220(sp)
   41c0c:	003cca06 	br	40f38 <__alt_data_end+0xfffd01f8>
   41c10:	b009883a 	mov	r4,r22
   41c14:	b80b883a 	mov	r5,r23
   41c18:	d9811e04 	addi	r6,sp,1144
   41c1c:	0047b440 	call	47b44 <__sprint_r>
   41c20:	103c4d1e 	bne	r2,zero,40d58 <__alt_data_end+0xfffd0018>
   41c24:	d8c12017 	ldw	r3,1152(sp)
   41c28:	d8812787 	ldb	r2,1182(sp)
   41c2c:	da000404 	addi	r8,sp,16
   41c30:	003d0506 	br	41048 <__alt_data_end+0xfffd0308>
   41c34:	dac12d17 	ldw	r11,1204(sp)
   41c38:	14c00017 	ldw	r19,0(r2)
   41c3c:	0039883a 	mov	fp,zero
   41c40:	5ac00104 	addi	r11,r11,4
   41c44:	dac12d15 	stw	r11,1204(sp)
   41c48:	0005883a 	mov	r2,zero
   41c4c:	9807883a 	mov	r3,r19
   41c50:	003c9c06 	br	40ec4 <__alt_data_end+0xfffd0184>
   41c54:	657fffc4 	addi	r21,r12,-1
   41c58:	057f5c0e 	bge	zero,r21,419cc <__alt_data_end+0xfffd0c8c>
   41c5c:	07000404 	movi	fp,16
   41c60:	e5408f0e 	bge	fp,r21,41ea0 <___vfprintf_internal_r+0x15a4>
   41c64:	01000174 	movhi	r4,5
   41c68:	211e7884 	addi	r4,r4,31202
   41c6c:	d9012c15 	stw	r4,1200(sp)
   41c70:	01c001c4 	movi	r7,7
   41c74:	00000306 	br	41c84 <___vfprintf_internal_r+0x1388>
   41c78:	94800204 	addi	r18,r18,8
   41c7c:	ad7ffc04 	addi	r21,r21,-16
   41c80:	e5408a0e 	bge	fp,r21,41eac <___vfprintf_internal_r+0x15b0>
   41c84:	18c00404 	addi	r3,r3,16
   41c88:	84000044 	addi	r16,r16,1
   41c8c:	95000015 	stw	r20,0(r18)
   41c90:	97000115 	stw	fp,4(r18)
   41c94:	d8c12015 	stw	r3,1152(sp)
   41c98:	dc011f15 	stw	r16,1148(sp)
   41c9c:	3c3ff60e 	bge	r7,r16,41c78 <__alt_data_end+0xfffd0f38>
   41ca0:	b009883a 	mov	r4,r22
   41ca4:	b80b883a 	mov	r5,r23
   41ca8:	d9811e04 	addi	r6,sp,1144
   41cac:	d9c13d15 	stw	r7,1268(sp)
   41cb0:	0047b440 	call	47b44 <__sprint_r>
   41cb4:	d9c13d17 	ldw	r7,1268(sp)
   41cb8:	103c271e 	bne	r2,zero,40d58 <__alt_data_end+0xfffd0018>
   41cbc:	d8c12017 	ldw	r3,1152(sp)
   41cc0:	dc011f17 	ldw	r16,1148(sp)
   41cc4:	dc800404 	addi	r18,sp,16
   41cc8:	003fec06 	br	41c7c <__alt_data_end+0xfffd0f3c>
   41ccc:	1cc00017 	ldw	r19,0(r3)
   41cd0:	dac12d17 	ldw	r11,1204(sp)
   41cd4:	9839d7fa 	srai	fp,r19,31
   41cd8:	5ac00104 	addi	r11,r11,4
   41cdc:	dac12d15 	stw	r11,1204(sp)
   41ce0:	e005883a 	mov	r2,fp
   41ce4:	003d9006 	br	41328 <__alt_data_end+0xfffd05e8>
   41ce8:	00800084 	movi	r2,2
   41cec:	9f06b03a 	or	r3,r19,fp
   41cf0:	003c7406 	br	40ec4 <__alt_data_end+0xfffd0184>
   41cf4:	db012d17 	ldw	r12,1204(sp)
   41cf8:	14c00017 	ldw	r19,0(r2)
   41cfc:	0039883a 	mov	fp,zero
   41d00:	63000104 	addi	r12,r12,4
   41d04:	db012d15 	stw	r12,1204(sp)
   41d08:	00800044 	movi	r2,1
   41d0c:	9807883a 	mov	r3,r19
   41d10:	003c6c06 	br	40ec4 <__alt_data_end+0xfffd0184>
   41d14:	10803fcc 	andi	r2,r2,255
   41d18:	1080201c 	xori	r2,r2,128
   41d1c:	10bfe004 	addi	r2,r2,-128
   41d20:	01000c04 	movi	r4,48
   41d24:	1101a526 	beq	r2,r4,423bc <___vfprintf_internal_r+0x1ac0>
   41d28:	dac13117 	ldw	r11,1220(sp)
   41d2c:	db012817 	ldw	r12,1184(sp)
   41d30:	193fffc5 	stb	r4,-1(r3)
   41d34:	5affffc4 	addi	r11,r11,-1
   41d38:	dac13115 	stw	r11,1220(sp)
   41d3c:	62e5c83a 	sub	r18,r12,r11
   41d40:	003c7d06 	br	40f38 <__alt_data_end+0xfffd01f8>
   41d44:	b009883a 	mov	r4,r22
   41d48:	b80b883a 	mov	r5,r23
   41d4c:	d9811e04 	addi	r6,sp,1144
   41d50:	0047b440 	call	47b44 <__sprint_r>
   41d54:	103c001e 	bne	r2,zero,40d58 <__alt_data_end+0xfffd0018>
   41d58:	d8c12017 	ldw	r3,1152(sp)
   41d5c:	da000404 	addi	r8,sp,16
   41d60:	db013117 	ldw	r12,1220(sp)
   41d64:	dac13417 	ldw	r11,1232(sp)
   41d68:	d8812617 	ldw	r2,1176(sp)
   41d6c:	62e5883a 	add	r18,r12,r11
   41d70:	db013317 	ldw	r12,1228(sp)
   41d74:	13000216 	blt	r2,r12,41d80 <___vfprintf_internal_r+0x1484>
   41d78:	8900004c 	andi	r4,r17,1
   41d7c:	20000c26 	beq	r4,zero,41db0 <___vfprintf_internal_r+0x14b4>
   41d80:	dac13817 	ldw	r11,1248(sp)
   41d84:	d9011f17 	ldw	r4,1148(sp)
   41d88:	db013517 	ldw	r12,1236(sp)
   41d8c:	1ac7883a 	add	r3,r3,r11
   41d90:	21000044 	addi	r4,r4,1
   41d94:	43000015 	stw	r12,0(r8)
   41d98:	42c00115 	stw	r11,4(r8)
   41d9c:	d8c12015 	stw	r3,1152(sp)
   41da0:	d9011f15 	stw	r4,1148(sp)
   41da4:	014001c4 	movi	r5,7
   41da8:	2901cc16 	blt	r5,r4,424dc <___vfprintf_internal_r+0x1be0>
   41dac:	42000204 	addi	r8,r8,8
   41db0:	dac13317 	ldw	r11,1228(sp)
   41db4:	8489c83a 	sub	r4,r16,r18
   41db8:	5885c83a 	sub	r2,r11,r2
   41dbc:	1021883a 	mov	r16,r2
   41dc0:	2080010e 	bge	r4,r2,41dc8 <___vfprintf_internal_r+0x14cc>
   41dc4:	2021883a 	mov	r16,r4
   41dc8:	04000a0e 	bge	zero,r16,41df4 <___vfprintf_internal_r+0x14f8>
   41dcc:	d9011f17 	ldw	r4,1148(sp)
   41dd0:	1c07883a 	add	r3,r3,r16
   41dd4:	44800015 	stw	r18,0(r8)
   41dd8:	21000044 	addi	r4,r4,1
   41ddc:	44000115 	stw	r16,4(r8)
   41de0:	d8c12015 	stw	r3,1152(sp)
   41de4:	d9011f15 	stw	r4,1148(sp)
   41de8:	014001c4 	movi	r5,7
   41dec:	2901d616 	blt	r5,r4,42548 <___vfprintf_internal_r+0x1c4c>
   41df0:	42000204 	addi	r8,r8,8
   41df4:	8001df16 	blt	r16,zero,42574 <___vfprintf_internal_r+0x1c78>
   41df8:	1421c83a 	sub	r16,r2,r16
   41dfc:	043ce60e 	bge	zero,r16,41198 <__alt_data_end+0xfffd0458>
   41e00:	04800404 	movi	r18,16
   41e04:	d8811f17 	ldw	r2,1148(sp)
   41e08:	943efc0e 	bge	r18,r16,419fc <__alt_data_end+0xfffd0cbc>
   41e0c:	01400174 	movhi	r5,5
   41e10:	295e7884 	addi	r5,r5,31202
   41e14:	d9412c15 	stw	r5,1200(sp)
   41e18:	054001c4 	movi	r21,7
   41e1c:	00000306 	br	41e2c <___vfprintf_internal_r+0x1530>
   41e20:	42000204 	addi	r8,r8,8
   41e24:	843ffc04 	addi	r16,r16,-16
   41e28:	943ef70e 	bge	r18,r16,41a08 <__alt_data_end+0xfffd0cc8>
   41e2c:	18c00404 	addi	r3,r3,16
   41e30:	10800044 	addi	r2,r2,1
   41e34:	45000015 	stw	r20,0(r8)
   41e38:	44800115 	stw	r18,4(r8)
   41e3c:	d8c12015 	stw	r3,1152(sp)
   41e40:	d8811f15 	stw	r2,1148(sp)
   41e44:	a8bff60e 	bge	r21,r2,41e20 <__alt_data_end+0xfffd10e0>
   41e48:	b009883a 	mov	r4,r22
   41e4c:	b80b883a 	mov	r5,r23
   41e50:	d9811e04 	addi	r6,sp,1144
   41e54:	0047b440 	call	47b44 <__sprint_r>
   41e58:	103bbf1e 	bne	r2,zero,40d58 <__alt_data_end+0xfffd0018>
   41e5c:	d8c12017 	ldw	r3,1152(sp)
   41e60:	d8811f17 	ldw	r2,1148(sp)
   41e64:	da000404 	addi	r8,sp,16
   41e68:	003fee06 	br	41e24 <__alt_data_end+0xfffd10e4>
   41e6c:	8888703a 	and	r4,r17,r2
   41e70:	203eab1e 	bne	r4,zero,41920 <__alt_data_end+0xfffd0be0>
   41e74:	dc011f17 	ldw	r16,1148(sp)
   41e78:	db013117 	ldw	r12,1220(sp)
   41e7c:	40800115 	stw	r2,4(r8)
   41e80:	84000044 	addi	r16,r16,1
   41e84:	43000015 	stw	r12,0(r8)
   41e88:	d8c12015 	stw	r3,1152(sp)
   41e8c:	dc011f15 	stw	r16,1148(sp)
   41e90:	008001c4 	movi	r2,7
   41e94:	14000e16 	blt	r2,r16,41ed0 <___vfprintf_internal_r+0x15d4>
   41e98:	44800204 	addi	r18,r8,8
   41e9c:	003ecb06 	br	419cc <__alt_data_end+0xfffd0c8c>
   41ea0:	00800174 	movhi	r2,5
   41ea4:	109e7884 	addi	r2,r2,31202
   41ea8:	d8812c15 	stw	r2,1200(sp)
   41eac:	dac12c17 	ldw	r11,1200(sp)
   41eb0:	1d47883a 	add	r3,r3,r21
   41eb4:	84000044 	addi	r16,r16,1
   41eb8:	92c00015 	stw	r11,0(r18)
   41ebc:	95400115 	stw	r21,4(r18)
   41ec0:	d8c12015 	stw	r3,1152(sp)
   41ec4:	dc011f15 	stw	r16,1148(sp)
   41ec8:	008001c4 	movi	r2,7
   41ecc:	143ebe0e 	bge	r2,r16,419c8 <__alt_data_end+0xfffd0c88>
   41ed0:	b009883a 	mov	r4,r22
   41ed4:	b80b883a 	mov	r5,r23
   41ed8:	d9811e04 	addi	r6,sp,1144
   41edc:	0047b440 	call	47b44 <__sprint_r>
   41ee0:	103b9d1e 	bne	r2,zero,40d58 <__alt_data_end+0xfffd0018>
   41ee4:	d8c12017 	ldw	r3,1152(sp)
   41ee8:	dc011f17 	ldw	r16,1148(sp)
   41eec:	dc800404 	addi	r18,sp,16
   41ef0:	003eb606 	br	419cc <__alt_data_end+0xfffd0c8c>
   41ef4:	b009883a 	mov	r4,r22
   41ef8:	b80b883a 	mov	r5,r23
   41efc:	d9811e04 	addi	r6,sp,1144
   41f00:	0047b440 	call	47b44 <__sprint_r>
   41f04:	103b941e 	bne	r2,zero,40d58 <__alt_data_end+0xfffd0018>
   41f08:	d8c12017 	ldw	r3,1152(sp)
   41f0c:	dc011f17 	ldw	r16,1148(sp)
   41f10:	da000404 	addi	r8,sp,16
   41f14:	003e8d06 	br	4194c <__alt_data_end+0xfffd0c0c>
   41f18:	b009883a 	mov	r4,r22
   41f1c:	b80b883a 	mov	r5,r23
   41f20:	d9811e04 	addi	r6,sp,1144
   41f24:	0047b440 	call	47b44 <__sprint_r>
   41f28:	103b8b1e 	bne	r2,zero,40d58 <__alt_data_end+0xfffd0018>
   41f2c:	d8c12017 	ldw	r3,1152(sp)
   41f30:	dc011f17 	ldw	r16,1148(sp)
   41f34:	dc800404 	addi	r18,sp,16
   41f38:	003e8f06 	br	41978 <__alt_data_end+0xfffd0c38>
   41f3c:	db010e04 	addi	r12,sp,1080
   41f40:	0025883a 	mov	r18,zero
   41f44:	db013115 	stw	r12,1220(sp)
   41f48:	003bfb06 	br	40f38 <__alt_data_end+0xfffd01f8>
   41f4c:	b009883a 	mov	r4,r22
   41f50:	b80b883a 	mov	r5,r23
   41f54:	d9811e04 	addi	r6,sp,1144
   41f58:	0047b440 	call	47b44 <__sprint_r>
   41f5c:	103b7e1e 	bne	r2,zero,40d58 <__alt_data_end+0xfffd0018>
   41f60:	d8c12017 	ldw	r3,1152(sp)
   41f64:	da000404 	addi	r8,sp,16
   41f68:	003c5506 	br	410c0 <__alt_data_end+0xfffd0380>
   41f6c:	04e7c83a 	sub	r19,zero,r19
   41f70:	9804c03a 	cmpne	r2,r19,zero
   41f74:	0739c83a 	sub	fp,zero,fp
   41f78:	e0b9c83a 	sub	fp,fp,r2
   41f7c:	05400b44 	movi	r21,45
   41f80:	dd412785 	stb	r21,1182(sp)
   41f84:	da413215 	stw	r9,1224(sp)
   41f88:	00800044 	movi	r2,1
   41f8c:	9f06b03a 	or	r3,r19,fp
   41f90:	003bcf06 	br	40ed0 <__alt_data_end+0xfffd0190>
   41f94:	da013f15 	stw	r8,1276(sp)
   41f98:	da413e15 	stw	r9,1272(sp)
   41f9c:	00477a00 	call	477a0 <__fpclassifyd>
   41fa0:	da013f17 	ldw	r8,1276(sp)
   41fa4:	da413e17 	ldw	r9,1272(sp)
   41fa8:	1000ce26 	beq	r2,zero,422e4 <___vfprintf_internal_r+0x19e8>
   41fac:	057ff7c4 	movi	r21,-33
   41fb0:	00bfffc4 	movi	r2,-1
   41fb4:	856a703a 	and	r21,r16,r21
   41fb8:	4881f026 	beq	r9,r2,4277c <___vfprintf_internal_r+0x1e80>
   41fbc:	008011c4 	movi	r2,71
   41fc0:	a881e526 	beq	r21,r2,42758 <___vfprintf_internal_r+0x1e5c>
   41fc4:	db013917 	ldw	r12,1252(sp)
   41fc8:	8ac04014 	ori	r11,r17,256
   41fcc:	dac12d15 	stw	r11,1204(sp)
   41fd0:	6001e416 	blt	r12,zero,42764 <___vfprintf_internal_r+0x1e68>
   41fd4:	dc813917 	ldw	r18,1252(sp)
   41fd8:	d8012b05 	stb	zero,1196(sp)
   41fdc:	00801984 	movi	r2,102
   41fe0:	80811826 	beq	r16,r2,42444 <___vfprintf_internal_r+0x1b48>
   41fe4:	00801184 	movi	r2,70
   41fe8:	80811626 	beq	r16,r2,42444 <___vfprintf_internal_r+0x1b48>
   41fec:	00801144 	movi	r2,69
   41ff0:	a881e026 	beq	r21,r2,42774 <___vfprintf_internal_r+0x1e78>
   41ff4:	4839883a 	mov	fp,r9
   41ff8:	d8812604 	addi	r2,sp,1176
   41ffc:	d8800115 	stw	r2,4(sp)
   42000:	d9413717 	ldw	r5,1244(sp)
   42004:	d8812504 	addi	r2,sp,1172
   42008:	d8800215 	stw	r2,8(sp)
   4200c:	d8812104 	addi	r2,sp,1156
   42010:	df000015 	stw	fp,0(sp)
   42014:	d8800315 	stw	r2,12(sp)
   42018:	b009883a 	mov	r4,r22
   4201c:	900d883a 	mov	r6,r18
   42020:	01c00084 	movi	r7,2
   42024:	da013f15 	stw	r8,1276(sp)
   42028:	da413e15 	stw	r9,1272(sp)
   4202c:	0042c4c0 	call	42c4c <_dtoa_r>
   42030:	d8813115 	stw	r2,1220(sp)
   42034:	008019c4 	movi	r2,103
   42038:	da013f17 	ldw	r8,1276(sp)
   4203c:	da413e17 	ldw	r9,1272(sp)
   42040:	80800226 	beq	r16,r2,4204c <___vfprintf_internal_r+0x1750>
   42044:	008011c4 	movi	r2,71
   42048:	8081101e 	bne	r16,r2,4248c <___vfprintf_internal_r+0x1b90>
   4204c:	8880004c 	andi	r2,r17,1
   42050:	1001df26 	beq	r2,zero,427d0 <___vfprintf_internal_r+0x1ed4>
   42054:	db013117 	ldw	r12,1220(sp)
   42058:	6715883a 	add	r10,r12,fp
   4205c:	d9013717 	ldw	r4,1244(sp)
   42060:	900b883a 	mov	r5,r18
   42064:	000d883a 	mov	r6,zero
   42068:	000f883a 	mov	r7,zero
   4206c:	da013f15 	stw	r8,1276(sp)
   42070:	da413e15 	stw	r9,1272(sp)
   42074:	da813d15 	stw	r10,1268(sp)
   42078:	004b4cc0 	call	4b4cc <__eqdf2>
   4207c:	da013f17 	ldw	r8,1276(sp)
   42080:	da413e17 	ldw	r9,1272(sp)
   42084:	da813d17 	ldw	r10,1268(sp)
   42088:	10016526 	beq	r2,zero,42620 <___vfprintf_internal_r+0x1d24>
   4208c:	d8812117 	ldw	r2,1156(sp)
   42090:	1280062e 	bgeu	r2,r10,420ac <___vfprintf_internal_r+0x17b0>
   42094:	01000c04 	movi	r4,48
   42098:	10c00044 	addi	r3,r2,1
   4209c:	d8c12115 	stw	r3,1156(sp)
   420a0:	11000005 	stb	r4,0(r2)
   420a4:	d8812117 	ldw	r2,1156(sp)
   420a8:	12bffb36 	bltu	r2,r10,42098 <__alt_data_end+0xfffd1358>
   420ac:	db013117 	ldw	r12,1220(sp)
   420b0:	1305c83a 	sub	r2,r2,r12
   420b4:	d8813315 	stw	r2,1228(sp)
   420b8:	008011c4 	movi	r2,71
   420bc:	a8814a26 	beq	r21,r2,425e8 <___vfprintf_internal_r+0x1cec>
   420c0:	00801944 	movi	r2,101
   420c4:	14020a0e 	bge	r2,r16,428f0 <___vfprintf_internal_r+0x1ff4>
   420c8:	00801984 	movi	r2,102
   420cc:	8081b626 	beq	r16,r2,427a8 <___vfprintf_internal_r+0x1eac>
   420d0:	db012617 	ldw	r12,1176(sp)
   420d4:	db013415 	stw	r12,1232(sp)
   420d8:	db013417 	ldw	r12,1232(sp)
   420dc:	dac13317 	ldw	r11,1228(sp)
   420e0:	62c1a816 	blt	r12,r11,42784 <___vfprintf_internal_r+0x1e88>
   420e4:	8c40004c 	andi	r17,r17,1
   420e8:	8801ca1e 	bne	r17,zero,42814 <___vfprintf_internal_r+0x1f18>
   420ec:	6005883a 	mov	r2,r12
   420f0:	6001b516 	blt	r12,zero,427c8 <___vfprintf_internal_r+0x1ecc>
   420f4:	dc813417 	ldw	r18,1232(sp)
   420f8:	df012b07 	ldb	fp,1196(sp)
   420fc:	e001321e 	bne	fp,zero,425c8 <___vfprintf_internal_r+0x1ccc>
   42100:	dc412d17 	ldw	r17,1204(sp)
   42104:	dd412783 	ldbu	r21,1182(sp)
   42108:	d8812b15 	stw	r2,1196(sp)
   4210c:	dcc12d15 	stw	r19,1204(sp)
   42110:	d8013215 	stw	zero,1224(sp)
   42114:	003b8d06 	br	40f4c <__alt_data_end+0xfffd020c>
   42118:	88c0100c 	andi	r3,r17,64
   4211c:	18008226 	beq	r3,zero,42328 <___vfprintf_internal_r+0x1a2c>
   42120:	dac12d17 	ldw	r11,1204(sp)
   42124:	14c0000b 	ldhu	r19,0(r2)
   42128:	0039883a 	mov	fp,zero
   4212c:	5ac00104 	addi	r11,r11,4
   42130:	dac12d15 	stw	r11,1204(sp)
   42134:	003c8f06 	br	41374 <__alt_data_end+0xfffd0634>
   42138:	1c000007 	ldb	r16,0(r3)
   4213c:	1805883a 	mov	r2,r3
   42140:	003a5506 	br	40a98 <__alt_data_end+0xfffcfd58>
   42144:	00800084 	movi	r2,2
   42148:	003b5e06 	br	40ec4 <__alt_data_end+0xfffd0184>
   4214c:	8880040c 	andi	r2,r17,16
   42150:	1000091e 	bne	r2,zero,42178 <___vfprintf_internal_r+0x187c>
   42154:	8c40100c 	andi	r17,r17,64
   42158:	88000726 	beq	r17,zero,42178 <___vfprintf_internal_r+0x187c>
   4215c:	db012d17 	ldw	r12,1204(sp)
   42160:	dac12f17 	ldw	r11,1212(sp)
   42164:	60800017 	ldw	r2,0(r12)
   42168:	63000104 	addi	r12,r12,4
   4216c:	db012d15 	stw	r12,1204(sp)
   42170:	12c0000d 	sth	r11,0(r2)
   42174:	003a1e06 	br	409f0 <__alt_data_end+0xfffcfcb0>
   42178:	db012d17 	ldw	r12,1204(sp)
   4217c:	dac12f17 	ldw	r11,1212(sp)
   42180:	60800017 	ldw	r2,0(r12)
   42184:	63000104 	addi	r12,r12,4
   42188:	db012d15 	stw	r12,1204(sp)
   4218c:	12c00015 	stw	r11,0(r2)
   42190:	003a1706 	br	409f0 <__alt_data_end+0xfffcfcb0>
   42194:	01000174 	movhi	r4,5
   42198:	211e7884 	addi	r4,r4,31202
   4219c:	d9012c15 	stw	r4,1200(sp)
   421a0:	dac12c17 	ldw	r11,1200(sp)
   421a4:	1c87883a 	add	r3,r3,r18
   421a8:	10800044 	addi	r2,r2,1
   421ac:	42c00015 	stw	r11,0(r8)
   421b0:	44800115 	stw	r18,4(r8)
   421b4:	d8c12015 	stw	r3,1152(sp)
   421b8:	d8811f15 	stw	r2,1148(sp)
   421bc:	010001c4 	movi	r4,7
   421c0:	20bee016 	blt	r4,r2,41d44 <__alt_data_end+0xfffd1004>
   421c4:	42000204 	addi	r8,r8,8
   421c8:	003ee506 	br	41d60 <__alt_data_end+0xfffd1020>
   421cc:	01000174 	movhi	r4,5
   421d0:	211e7884 	addi	r4,r4,31202
   421d4:	d9012c15 	stw	r4,1200(sp)
   421d8:	003bd806 	br	4113c <__alt_data_end+0xfffd03fc>
   421dc:	b009883a 	mov	r4,r22
   421e0:	b80b883a 	mov	r5,r23
   421e4:	d9811e04 	addi	r6,sp,1144
   421e8:	0047b440 	call	47b44 <__sprint_r>
   421ec:	103ada1e 	bne	r2,zero,40d58 <__alt_data_end+0xfffd0018>
   421f0:	d8c12017 	ldw	r3,1152(sp)
   421f4:	da000404 	addi	r8,sp,16
   421f8:	003d6b06 	br	417a8 <__alt_data_end+0xfffd0a68>
   421fc:	d8811f17 	ldw	r2,1148(sp)
   42200:	03000174 	movhi	r12,5
   42204:	01000044 	movi	r4,1
   42208:	18c00044 	addi	r3,r3,1
   4220c:	10800044 	addi	r2,r2,1
   42210:	631e7804 	addi	r12,r12,31200
   42214:	41000115 	stw	r4,4(r8)
   42218:	43000015 	stw	r12,0(r8)
   4221c:	d8c12015 	stw	r3,1152(sp)
   42220:	d8811f15 	stw	r2,1148(sp)
   42224:	010001c4 	movi	r4,7
   42228:	20804916 	blt	r4,r2,42350 <___vfprintf_internal_r+0x1a54>
   4222c:	42000204 	addi	r8,r8,8
   42230:	8000041e 	bne	r16,zero,42244 <___vfprintf_internal_r+0x1948>
   42234:	dac13317 	ldw	r11,1228(sp)
   42238:	5800021e 	bne	r11,zero,42244 <___vfprintf_internal_r+0x1948>
   4223c:	8880004c 	andi	r2,r17,1
   42240:	103bd526 	beq	r2,zero,41198 <__alt_data_end+0xfffd0458>
   42244:	db013817 	ldw	r12,1248(sp)
   42248:	d8811f17 	ldw	r2,1148(sp)
   4224c:	dac13517 	ldw	r11,1236(sp)
   42250:	1b07883a 	add	r3,r3,r12
   42254:	10800044 	addi	r2,r2,1
   42258:	42c00015 	stw	r11,0(r8)
   4225c:	43000115 	stw	r12,4(r8)
   42260:	d8c12015 	stw	r3,1152(sp)
   42264:	d8811f15 	stw	r2,1148(sp)
   42268:	010001c4 	movi	r4,7
   4226c:	20813016 	blt	r4,r2,42730 <___vfprintf_internal_r+0x1e34>
   42270:	42000204 	addi	r8,r8,8
   42274:	0421c83a 	sub	r16,zero,r16
   42278:	0400630e 	bge	zero,r16,42408 <___vfprintf_internal_r+0x1b0c>
   4227c:	04800404 	movi	r18,16
   42280:	94009f0e 	bge	r18,r16,42500 <___vfprintf_internal_r+0x1c04>
   42284:	01000174 	movhi	r4,5
   42288:	211e7884 	addi	r4,r4,31202
   4228c:	d9012c15 	stw	r4,1200(sp)
   42290:	054001c4 	movi	r21,7
   42294:	00000306 	br	422a4 <___vfprintf_internal_r+0x19a8>
   42298:	42000204 	addi	r8,r8,8
   4229c:	843ffc04 	addi	r16,r16,-16
   422a0:	94009a0e 	bge	r18,r16,4250c <___vfprintf_internal_r+0x1c10>
   422a4:	18c00404 	addi	r3,r3,16
   422a8:	10800044 	addi	r2,r2,1
   422ac:	45000015 	stw	r20,0(r8)
   422b0:	44800115 	stw	r18,4(r8)
   422b4:	d8c12015 	stw	r3,1152(sp)
   422b8:	d8811f15 	stw	r2,1148(sp)
   422bc:	a8bff60e 	bge	r21,r2,42298 <__alt_data_end+0xfffd1558>
   422c0:	b009883a 	mov	r4,r22
   422c4:	b80b883a 	mov	r5,r23
   422c8:	d9811e04 	addi	r6,sp,1144
   422cc:	0047b440 	call	47b44 <__sprint_r>
   422d0:	103aa11e 	bne	r2,zero,40d58 <__alt_data_end+0xfffd0018>
   422d4:	d8c12017 	ldw	r3,1152(sp)
   422d8:	d8811f17 	ldw	r2,1148(sp)
   422dc:	da000404 	addi	r8,sp,16
   422e0:	003fee06 	br	4229c <__alt_data_end+0xfffd155c>
   422e4:	008011c4 	movi	r2,71
   422e8:	1400b316 	blt	r2,r16,425b8 <___vfprintf_internal_r+0x1cbc>
   422ec:	03000174 	movhi	r12,5
   422f0:	631e6a04 	addi	r12,r12,31144
   422f4:	db013115 	stw	r12,1220(sp)
   422f8:	00c000c4 	movi	r3,3
   422fc:	00bfdfc4 	movi	r2,-129
   42300:	d8c12b15 	stw	r3,1196(sp)
   42304:	88a2703a 	and	r17,r17,r2
   42308:	dd412783 	ldbu	r21,1182(sp)
   4230c:	dcc12d15 	stw	r19,1204(sp)
   42310:	1825883a 	mov	r18,r3
   42314:	d8013215 	stw	zero,1224(sp)
   42318:	d8013415 	stw	zero,1232(sp)
   4231c:	003b0b06 	br	40f4c <__alt_data_end+0xfffd020c>
   42320:	4825883a 	mov	r18,r9
   42324:	003cba06 	br	41610 <__alt_data_end+0xfffd08d0>
   42328:	db012d17 	ldw	r12,1204(sp)
   4232c:	14c00017 	ldw	r19,0(r2)
   42330:	0039883a 	mov	fp,zero
   42334:	63000104 	addi	r12,r12,4
   42338:	db012d15 	stw	r12,1204(sp)
   4233c:	003c0d06 	br	41374 <__alt_data_end+0xfffd0634>
   42340:	00800174 	movhi	r2,5
   42344:	109e6804 	addi	r2,r2,31136
   42348:	d8813115 	stw	r2,1220(sp)
   4234c:	003ac406 	br	40e60 <__alt_data_end+0xfffd0120>
   42350:	b009883a 	mov	r4,r22
   42354:	b80b883a 	mov	r5,r23
   42358:	d9811e04 	addi	r6,sp,1144
   4235c:	0047b440 	call	47b44 <__sprint_r>
   42360:	103a7d1e 	bne	r2,zero,40d58 <__alt_data_end+0xfffd0018>
   42364:	dc012617 	ldw	r16,1176(sp)
   42368:	d8c12017 	ldw	r3,1152(sp)
   4236c:	da000404 	addi	r8,sp,16
   42370:	003faf06 	br	42230 <__alt_data_end+0xfffd14f0>
   42374:	db012e17 	ldw	r12,1208(sp)
   42378:	1805883a 	mov	r2,r3
   4237c:	dac12d15 	stw	r11,1204(sp)
   42380:	0319c83a 	sub	r12,zero,r12
   42384:	db012e15 	stw	r12,1208(sp)
   42388:	003a7e06 	br	40d84 <__alt_data_end+0xfffd0044>
   4238c:	18800044 	addi	r2,r3,1
   42390:	8c400814 	ori	r17,r17,32
   42394:	1c000047 	ldb	r16,1(r3)
   42398:	0039bf06 	br	40a98 <__alt_data_end+0xfffcfd58>
   4239c:	b009883a 	mov	r4,r22
   423a0:	b80b883a 	mov	r5,r23
   423a4:	d9811e04 	addi	r6,sp,1144
   423a8:	0047b440 	call	47b44 <__sprint_r>
   423ac:	103a6a1e 	bne	r2,zero,40d58 <__alt_data_end+0xfffd0018>
   423b0:	d8c12017 	ldw	r3,1152(sp)
   423b4:	da000404 	addi	r8,sp,16
   423b8:	003d0c06 	br	417ec <__alt_data_end+0xfffd0aac>
   423bc:	db012817 	ldw	r12,1184(sp)
   423c0:	d8c13117 	ldw	r3,1220(sp)
   423c4:	60e5c83a 	sub	r18,r12,r3
   423c8:	003adb06 	br	40f38 <__alt_data_end+0xfffd01f8>
   423cc:	da013f15 	stw	r8,1276(sp)
   423d0:	00408640 	call	40864 <strlen>
   423d4:	1025883a 	mov	r18,r2
   423d8:	da013f17 	ldw	r8,1276(sp)
   423dc:	903c8e0e 	bge	r18,zero,41618 <__alt_data_end+0xfffd08d8>
   423e0:	0005883a 	mov	r2,zero
   423e4:	003c8c06 	br	41618 <__alt_data_end+0xfffd08d8>
   423e8:	b009883a 	mov	r4,r22
   423ec:	b80b883a 	mov	r5,r23
   423f0:	d9811e04 	addi	r6,sp,1144
   423f4:	0047b440 	call	47b44 <__sprint_r>
   423f8:	103a571e 	bne	r2,zero,40d58 <__alt_data_end+0xfffd0018>
   423fc:	d8c12017 	ldw	r3,1152(sp)
   42400:	d8811f17 	ldw	r2,1148(sp)
   42404:	da000404 	addi	r8,sp,16
   42408:	db013317 	ldw	r12,1228(sp)
   4240c:	dac13117 	ldw	r11,1220(sp)
   42410:	10800044 	addi	r2,r2,1
   42414:	60c7883a 	add	r3,r12,r3
   42418:	42c00015 	stw	r11,0(r8)
   4241c:	43000115 	stw	r12,4(r8)
   42420:	d8c12015 	stw	r3,1152(sp)
   42424:	d8811f15 	stw	r2,1148(sp)
   42428:	010001c4 	movi	r4,7
   4242c:	20bb590e 	bge	r4,r2,41194 <__alt_data_end+0xfffd0454>
   42430:	003d7e06 	br	41a2c <__alt_data_end+0xfffd0cec>
   42434:	01000174 	movhi	r4,5
   42438:	211e7c84 	addi	r4,r4,31218
   4243c:	d9013615 	stw	r4,1240(sp)
   42440:	003af606 	br	4101c <__alt_data_end+0xfffd02dc>
   42444:	d8812604 	addi	r2,sp,1176
   42448:	d8800115 	stw	r2,4(sp)
   4244c:	d9413717 	ldw	r5,1244(sp)
   42450:	d8812504 	addi	r2,sp,1172
   42454:	d8800215 	stw	r2,8(sp)
   42458:	d8812104 	addi	r2,sp,1156
   4245c:	da400015 	stw	r9,0(sp)
   42460:	d8800315 	stw	r2,12(sp)
   42464:	b009883a 	mov	r4,r22
   42468:	900d883a 	mov	r6,r18
   4246c:	01c000c4 	movi	r7,3
   42470:	da013f15 	stw	r8,1276(sp)
   42474:	da413e15 	stw	r9,1272(sp)
   42478:	0042c4c0 	call	42c4c <_dtoa_r>
   4247c:	da413e17 	ldw	r9,1272(sp)
   42480:	da013f17 	ldw	r8,1276(sp)
   42484:	d8813115 	stw	r2,1220(sp)
   42488:	4839883a 	mov	fp,r9
   4248c:	dac13117 	ldw	r11,1220(sp)
   42490:	00801184 	movi	r2,70
   42494:	5f15883a 	add	r10,r11,fp
   42498:	a8bef01e 	bne	r21,r2,4205c <__alt_data_end+0xfffd131c>
   4249c:	59000007 	ldb	r4,0(r11)
   424a0:	00800c04 	movi	r2,48
   424a4:	2080e026 	beq	r4,r2,42828 <___vfprintf_internal_r+0x1f2c>
   424a8:	d8c12617 	ldw	r3,1176(sp)
   424ac:	50d5883a 	add	r10,r10,r3
   424b0:	003eea06 	br	4205c <__alt_data_end+0xfffd131c>
   424b4:	0025883a 	mov	r18,zero
   424b8:	003db306 	br	41b88 <__alt_data_end+0xfffd0e48>
   424bc:	b009883a 	mov	r4,r22
   424c0:	b80b883a 	mov	r5,r23
   424c4:	d9811e04 	addi	r6,sp,1144
   424c8:	0047b440 	call	47b44 <__sprint_r>
   424cc:	103a221e 	bne	r2,zero,40d58 <__alt_data_end+0xfffd0018>
   424d0:	d8c12017 	ldw	r3,1152(sp)
   424d4:	da000404 	addi	r8,sp,16
   424d8:	003daa06 	br	41b84 <__alt_data_end+0xfffd0e44>
   424dc:	b009883a 	mov	r4,r22
   424e0:	b80b883a 	mov	r5,r23
   424e4:	d9811e04 	addi	r6,sp,1144
   424e8:	0047b440 	call	47b44 <__sprint_r>
   424ec:	103a1a1e 	bne	r2,zero,40d58 <__alt_data_end+0xfffd0018>
   424f0:	d8812617 	ldw	r2,1176(sp)
   424f4:	d8c12017 	ldw	r3,1152(sp)
   424f8:	da000404 	addi	r8,sp,16
   424fc:	003e2c06 	br	41db0 <__alt_data_end+0xfffd1070>
   42500:	03000174 	movhi	r12,5
   42504:	631e7884 	addi	r12,r12,31202
   42508:	db012c15 	stw	r12,1200(sp)
   4250c:	dac12c17 	ldw	r11,1200(sp)
   42510:	1c07883a 	add	r3,r3,r16
   42514:	10800044 	addi	r2,r2,1
   42518:	42c00015 	stw	r11,0(r8)
   4251c:	44000115 	stw	r16,4(r8)
   42520:	d8c12015 	stw	r3,1152(sp)
   42524:	d8811f15 	stw	r2,1148(sp)
   42528:	010001c4 	movi	r4,7
   4252c:	20bfae16 	blt	r4,r2,423e8 <__alt_data_end+0xfffd16a8>
   42530:	42000204 	addi	r8,r8,8
   42534:	003fb406 	br	42408 <__alt_data_end+0xfffd16c8>
   42538:	03000174 	movhi	r12,5
   4253c:	631e7c84 	addi	r12,r12,31218
   42540:	db013615 	stw	r12,1240(sp)
   42544:	003b3806 	br	41228 <__alt_data_end+0xfffd04e8>
   42548:	b009883a 	mov	r4,r22
   4254c:	b80b883a 	mov	r5,r23
   42550:	d9811e04 	addi	r6,sp,1144
   42554:	0047b440 	call	47b44 <__sprint_r>
   42558:	1039ff1e 	bne	r2,zero,40d58 <__alt_data_end+0xfffd0018>
   4255c:	d8812617 	ldw	r2,1176(sp)
   42560:	db013317 	ldw	r12,1228(sp)
   42564:	d8c12017 	ldw	r3,1152(sp)
   42568:	da000404 	addi	r8,sp,16
   4256c:	6085c83a 	sub	r2,r12,r2
   42570:	003e2006 	br	41df4 <__alt_data_end+0xfffd10b4>
   42574:	0021883a 	mov	r16,zero
   42578:	003e1f06 	br	41df8 <__alt_data_end+0xfffd10b8>
   4257c:	00800184 	movi	r2,6
   42580:	1240012e 	bgeu	r2,r9,42588 <___vfprintf_internal_r+0x1c8c>
   42584:	1013883a 	mov	r9,r2
   42588:	4825883a 	mov	r18,r9
   4258c:	4805883a 	mov	r2,r9
   42590:	48009e16 	blt	r9,zero,4280c <___vfprintf_internal_r+0x1f10>
   42594:	d8812b15 	stw	r2,1196(sp)
   42598:	00800174 	movhi	r2,5
   4259c:	109e7604 	addi	r2,r2,31192
   425a0:	d8813115 	stw	r2,1220(sp)
   425a4:	dcc12d15 	stw	r19,1204(sp)
   425a8:	d8013215 	stw	zero,1224(sp)
   425ac:	d8013415 	stw	zero,1232(sp)
   425b0:	0005883a 	mov	r2,zero
   425b4:	003a6c06 	br	40f68 <__alt_data_end+0xfffd0228>
   425b8:	00800174 	movhi	r2,5
   425bc:	109e6b04 	addi	r2,r2,31148
   425c0:	d8813115 	stw	r2,1220(sp)
   425c4:	003f4c06 	br	422f8 <__alt_data_end+0xfffd15b8>
   425c8:	00c00b44 	movi	r3,45
   425cc:	d8812b15 	stw	r2,1196(sp)
   425d0:	dc412d17 	ldw	r17,1204(sp)
   425d4:	d8c12785 	stb	r3,1182(sp)
   425d8:	dcc12d15 	stw	r19,1204(sp)
   425dc:	d8013215 	stw	zero,1224(sp)
   425e0:	00800b44 	movi	r2,45
   425e4:	003a5d06 	br	40f5c <__alt_data_end+0xfffd021c>
   425e8:	d8c12617 	ldw	r3,1176(sp)
   425ec:	00bfff44 	movi	r2,-3
   425f0:	18800d16 	blt	r3,r2,42628 <___vfprintf_internal_r+0x1d2c>
   425f4:	48c00c16 	blt	r9,r3,42628 <___vfprintf_internal_r+0x1d2c>
   425f8:	d8c13415 	stw	r3,1232(sp)
   425fc:	040019c4 	movi	r16,103
   42600:	003eb506 	br	420d8 <__alt_data_end+0xfffd1398>
   42604:	05400b44 	movi	r21,45
   42608:	dd412785 	stb	r21,1182(sp)
   4260c:	003a0f06 	br	40e4c <__alt_data_end+0xfffd010c>
   42610:	01000174 	movhi	r4,5
   42614:	211e7884 	addi	r4,r4,31202
   42618:	d9012c15 	stw	r4,1200(sp)
   4261c:	003cb106 	br	418e4 <__alt_data_end+0xfffd0ba4>
   42620:	5005883a 	mov	r2,r10
   42624:	003ea106 	br	420ac <__alt_data_end+0xfffd136c>
   42628:	843fff84 	addi	r16,r16,-2
   4262c:	1f3fffc4 	addi	fp,r3,-1
   42630:	df012615 	stw	fp,1176(sp)
   42634:	dc0122c5 	stb	r16,1163(sp)
   42638:	e0009516 	blt	fp,zero,42890 <___vfprintf_internal_r+0x1f94>
   4263c:	00800ac4 	movi	r2,43
   42640:	d8812305 	stb	r2,1164(sp)
   42644:	00800244 	movi	r2,9
   42648:	1700690e 	bge	r2,fp,427f0 <___vfprintf_internal_r+0x1ef4>
   4264c:	dd4122c4 	addi	r21,sp,1163
   42650:	dc012c15 	stw	r16,1200(sp)
   42654:	8825883a 	mov	r18,r17
   42658:	a821883a 	mov	r16,r21
   4265c:	4023883a 	mov	r17,r8
   42660:	e009883a 	mov	r4,fp
   42664:	01400284 	movi	r5,10
   42668:	00406c40 	call	406c4 <__modsi3>
   4266c:	10800c04 	addi	r2,r2,48
   42670:	843fffc4 	addi	r16,r16,-1
   42674:	e009883a 	mov	r4,fp
   42678:	01400284 	movi	r5,10
   4267c:	80800005 	stb	r2,0(r16)
   42680:	00406700 	call	40670 <__divsi3>
   42684:	1039883a 	mov	fp,r2
   42688:	00800244 	movi	r2,9
   4268c:	173ff416 	blt	r2,fp,42660 <__alt_data_end+0xfffd1920>
   42690:	8811883a 	mov	r8,r17
   42694:	e0800c04 	addi	r2,fp,48
   42698:	9023883a 	mov	r17,r18
   4269c:	8025883a 	mov	r18,r16
   426a0:	913fffc4 	addi	r4,r18,-1
   426a4:	90bfffc5 	stb	r2,-1(r18)
   426a8:	dc012c17 	ldw	r16,1200(sp)
   426ac:	25408e2e 	bgeu	r4,r21,428e8 <___vfprintf_internal_r+0x1fec>
   426b0:	d9412384 	addi	r5,sp,1166
   426b4:	2c8bc83a 	sub	r5,r5,r18
   426b8:	d8c12344 	addi	r3,sp,1165
   426bc:	a94b883a 	add	r5,r21,r5
   426c0:	00000106 	br	426c8 <___vfprintf_internal_r+0x1dcc>
   426c4:	20800003 	ldbu	r2,0(r4)
   426c8:	18800005 	stb	r2,0(r3)
   426cc:	18c00044 	addi	r3,r3,1
   426d0:	21000044 	addi	r4,r4,1
   426d4:	197ffb1e 	bne	r3,r5,426c4 <__alt_data_end+0xfffd1984>
   426d8:	d8812304 	addi	r2,sp,1164
   426dc:	1485c83a 	sub	r2,r2,r18
   426e0:	d8c12344 	addi	r3,sp,1165
   426e4:	1885883a 	add	r2,r3,r2
   426e8:	dac13317 	ldw	r11,1228(sp)
   426ec:	156bc83a 	sub	r21,r2,r21
   426f0:	dd413a15 	stw	r21,1256(sp)
   426f4:	00800044 	movi	r2,1
   426f8:	5d65883a 	add	r18,r11,r21
   426fc:	12c0770e 	bge	r2,r11,428dc <___vfprintf_internal_r+0x1fe0>
   42700:	94800044 	addi	r18,r18,1
   42704:	9005883a 	mov	r2,r18
   42708:	90007216 	blt	r18,zero,428d4 <___vfprintf_internal_r+0x1fd8>
   4270c:	d8013415 	stw	zero,1232(sp)
   42710:	003e7906 	br	420f8 <__alt_data_end+0xfffd13b8>
   42714:	da412b15 	stw	r9,1196(sp)
   42718:	dd412783 	ldbu	r21,1182(sp)
   4271c:	4825883a 	mov	r18,r9
   42720:	dcc12d15 	stw	r19,1204(sp)
   42724:	d8013215 	stw	zero,1224(sp)
   42728:	d8013415 	stw	zero,1232(sp)
   4272c:	003a0706 	br	40f4c <__alt_data_end+0xfffd020c>
   42730:	b009883a 	mov	r4,r22
   42734:	b80b883a 	mov	r5,r23
   42738:	d9811e04 	addi	r6,sp,1144
   4273c:	0047b440 	call	47b44 <__sprint_r>
   42740:	1039851e 	bne	r2,zero,40d58 <__alt_data_end+0xfffd0018>
   42744:	dc012617 	ldw	r16,1176(sp)
   42748:	d8c12017 	ldw	r3,1152(sp)
   4274c:	d8811f17 	ldw	r2,1148(sp)
   42750:	da000404 	addi	r8,sp,16
   42754:	003ec706 	br	42274 <__alt_data_end+0xfffd1534>
   42758:	483e1a1e 	bne	r9,zero,41fc4 <__alt_data_end+0xfffd1284>
   4275c:	9013883a 	mov	r9,r18
   42760:	003e1806 	br	41fc4 <__alt_data_end+0xfffd1284>
   42764:	00c00b44 	movi	r3,45
   42768:	64a0003c 	xorhi	r18,r12,32768
   4276c:	d8c12b05 	stb	r3,1196(sp)
   42770:	003e1a06 	br	41fdc <__alt_data_end+0xfffd129c>
   42774:	4f000044 	addi	fp,r9,1
   42778:	003e1f06 	br	41ff8 <__alt_data_end+0xfffd12b8>
   4277c:	02400184 	movi	r9,6
   42780:	003e1006 	br	41fc4 <__alt_data_end+0xfffd1284>
   42784:	d8c13417 	ldw	r3,1232(sp)
   42788:	00c04b0e 	bge	zero,r3,428b8 <___vfprintf_internal_r+0x1fbc>
   4278c:	04800044 	movi	r18,1
   42790:	dac13317 	ldw	r11,1228(sp)
   42794:	92e5883a 	add	r18,r18,r11
   42798:	9005883a 	mov	r2,r18
   4279c:	903e560e 	bge	r18,zero,420f8 <__alt_data_end+0xfffd13b8>
   427a0:	0005883a 	mov	r2,zero
   427a4:	003e5406 	br	420f8 <__alt_data_end+0xfffd13b8>
   427a8:	d8c12617 	ldw	r3,1176(sp)
   427ac:	d8c13415 	stw	r3,1232(sp)
   427b0:	00c03b0e 	bge	zero,r3,428a0 <___vfprintf_internal_r+0x1fa4>
   427b4:	4800081e 	bne	r9,zero,427d8 <___vfprintf_internal_r+0x1edc>
   427b8:	8c40004c 	andi	r17,r17,1
   427bc:	8800061e 	bne	r17,zero,427d8 <___vfprintf_internal_r+0x1edc>
   427c0:	1805883a 	mov	r2,r3
   427c4:	183e4b0e 	bge	r3,zero,420f4 <__alt_data_end+0xfffd13b4>
   427c8:	0005883a 	mov	r2,zero
   427cc:	003e4906 	br	420f4 <__alt_data_end+0xfffd13b4>
   427d0:	d8812117 	ldw	r2,1156(sp)
   427d4:	003e3506 	br	420ac <__alt_data_end+0xfffd136c>
   427d8:	dac13417 	ldw	r11,1232(sp)
   427dc:	4a400044 	addi	r9,r9,1
   427e0:	5a65883a 	add	r18,r11,r9
   427e4:	9005883a 	mov	r2,r18
   427e8:	903e430e 	bge	r18,zero,420f8 <__alt_data_end+0xfffd13b8>
   427ec:	003fec06 	br	427a0 <__alt_data_end+0xfffd1a60>
   427f0:	00800c04 	movi	r2,48
   427f4:	e0c00c04 	addi	r3,fp,48
   427f8:	d8812345 	stb	r2,1165(sp)
   427fc:	d8c12385 	stb	r3,1166(sp)
   42800:	d88123c4 	addi	r2,sp,1167
   42804:	dd4122c4 	addi	r21,sp,1163
   42808:	003fb706 	br	426e8 <__alt_data_end+0xfffd19a8>
   4280c:	0005883a 	mov	r2,zero
   42810:	003f6006 	br	42594 <__alt_data_end+0xfffd1854>
   42814:	db013417 	ldw	r12,1232(sp)
   42818:	64800044 	addi	r18,r12,1
   4281c:	9005883a 	mov	r2,r18
   42820:	903e350e 	bge	r18,zero,420f8 <__alt_data_end+0xfffd13b8>
   42824:	003fde06 	br	427a0 <__alt_data_end+0xfffd1a60>
   42828:	d9013717 	ldw	r4,1244(sp)
   4282c:	900b883a 	mov	r5,r18
   42830:	000d883a 	mov	r6,zero
   42834:	000f883a 	mov	r7,zero
   42838:	da013f15 	stw	r8,1276(sp)
   4283c:	da413e15 	stw	r9,1272(sp)
   42840:	da813d15 	stw	r10,1268(sp)
   42844:	004b4cc0 	call	4b4cc <__eqdf2>
   42848:	da013f17 	ldw	r8,1276(sp)
   4284c:	da413e17 	ldw	r9,1272(sp)
   42850:	da813d17 	ldw	r10,1268(sp)
   42854:	103f1426 	beq	r2,zero,424a8 <__alt_data_end+0xfffd1768>
   42858:	00800044 	movi	r2,1
   4285c:	1707c83a 	sub	r3,r2,fp
   42860:	d8c12615 	stw	r3,1176(sp)
   42864:	003f1106 	br	424ac <__alt_data_end+0xfffd176c>
   42868:	dac12d17 	ldw	r11,1204(sp)
   4286c:	5a400017 	ldw	r9,0(r11)
   42870:	5ac00104 	addi	r11,r11,4
   42874:	dac12d15 	stw	r11,1204(sp)
   42878:	483ec60e 	bge	r9,zero,42394 <__alt_data_end+0xfffd1654>
   4287c:	027fffc4 	movi	r9,-1
   42880:	1c000047 	ldb	r16,1(r3)
   42884:	00388406 	br	40a98 <__alt_data_end+0xfffcfd58>
   42888:	043fffc4 	movi	r16,-1
   4288c:	00391006 	br	40cd0 <__alt_data_end+0xfffcff90>
   42890:	00800b44 	movi	r2,45
   42894:	0739c83a 	sub	fp,zero,fp
   42898:	d8812305 	stb	r2,1164(sp)
   4289c:	003f6906 	br	42644 <__alt_data_end+0xfffd1904>
   428a0:	4800081e 	bne	r9,zero,428c4 <___vfprintf_internal_r+0x1fc8>
   428a4:	8c40004c 	andi	r17,r17,1
   428a8:	8800061e 	bne	r17,zero,428c4 <___vfprintf_internal_r+0x1fc8>
   428ac:	00800044 	movi	r2,1
   428b0:	1025883a 	mov	r18,r2
   428b4:	003e1006 	br	420f8 <__alt_data_end+0xfffd13b8>
   428b8:	04800084 	movi	r18,2
   428bc:	90e5c83a 	sub	r18,r18,r3
   428c0:	003fb306 	br	42790 <__alt_data_end+0xfffd1a50>
   428c4:	4c800084 	addi	r18,r9,2
   428c8:	9005883a 	mov	r2,r18
   428cc:	903e0a0e 	bge	r18,zero,420f8 <__alt_data_end+0xfffd13b8>
   428d0:	003fb306 	br	427a0 <__alt_data_end+0xfffd1a60>
   428d4:	0005883a 	mov	r2,zero
   428d8:	003f8c06 	br	4270c <__alt_data_end+0xfffd19cc>
   428dc:	88a2703a 	and	r17,r17,r2
   428e0:	883f8826 	beq	r17,zero,42704 <__alt_data_end+0xfffd19c4>
   428e4:	003f8606 	br	42700 <__alt_data_end+0xfffd19c0>
   428e8:	d8812344 	addi	r2,sp,1165
   428ec:	003f7e06 	br	426e8 <__alt_data_end+0xfffd19a8>
   428f0:	d8c12617 	ldw	r3,1176(sp)
   428f4:	003f4d06 	br	4262c <__alt_data_end+0xfffd18ec>

000428f8 <__vfprintf_internal>:
   428f8:	2007883a 	mov	r3,r4
   428fc:	010001b4 	movhi	r4,6
   42900:	21262104 	addi	r4,r4,-26492
   42904:	21000017 	ldw	r4,0(r4)
   42908:	2805883a 	mov	r2,r5
   4290c:	300f883a 	mov	r7,r6
   42910:	180b883a 	mov	r5,r3
   42914:	100d883a 	mov	r6,r2
   42918:	00408fc1 	jmpi	408fc <___vfprintf_internal_r>

0004291c <__swsetup_r>:
   4291c:	008001b4 	movhi	r2,6
   42920:	defffd04 	addi	sp,sp,-12
   42924:	10a62104 	addi	r2,r2,-26492
   42928:	dc400115 	stw	r17,4(sp)
   4292c:	2023883a 	mov	r17,r4
   42930:	11000017 	ldw	r4,0(r2)
   42934:	dc000015 	stw	r16,0(sp)
   42938:	dfc00215 	stw	ra,8(sp)
   4293c:	2821883a 	mov	r16,r5
   42940:	20000226 	beq	r4,zero,4294c <__swsetup_r+0x30>
   42944:	20c00e17 	ldw	r3,56(r4)
   42948:	18002e26 	beq	r3,zero,42a04 <__swsetup_r+0xe8>
   4294c:	8080030b 	ldhu	r2,12(r16)
   42950:	10c0020c 	andi	r3,r2,8
   42954:	100d883a 	mov	r6,r2
   42958:	18000f26 	beq	r3,zero,42998 <__swsetup_r+0x7c>
   4295c:	80c00417 	ldw	r3,16(r16)
   42960:	18001526 	beq	r3,zero,429b8 <__swsetup_r+0x9c>
   42964:	1100004c 	andi	r4,r2,1
   42968:	20001c1e 	bne	r4,zero,429dc <__swsetup_r+0xc0>
   4296c:	1080008c 	andi	r2,r2,2
   42970:	1000261e 	bne	r2,zero,42a0c <__swsetup_r+0xf0>
   42974:	80800517 	ldw	r2,20(r16)
   42978:	80800215 	stw	r2,8(r16)
   4297c:	18001c26 	beq	r3,zero,429f0 <__swsetup_r+0xd4>
   42980:	0005883a 	mov	r2,zero
   42984:	dfc00217 	ldw	ra,8(sp)
   42988:	dc400117 	ldw	r17,4(sp)
   4298c:	dc000017 	ldw	r16,0(sp)
   42990:	dec00304 	addi	sp,sp,12
   42994:	f800283a 	ret
   42998:	3080040c 	andi	r2,r6,16
   4299c:	10001726 	beq	r2,zero,429fc <__swsetup_r+0xe0>
   429a0:	3080010c 	andi	r2,r6,4
   429a4:	10001b1e 	bne	r2,zero,42a14 <__swsetup_r+0xf8>
   429a8:	80c00417 	ldw	r3,16(r16)
   429ac:	30800214 	ori	r2,r6,8
   429b0:	8080030d 	sth	r2,12(r16)
   429b4:	183feb1e 	bne	r3,zero,42964 <__alt_data_end+0xfffd1c24>
   429b8:	1140a00c 	andi	r5,r2,640
   429bc:	01008004 	movi	r4,512
   429c0:	293fe826 	beq	r5,r4,42964 <__alt_data_end+0xfffd1c24>
   429c4:	8809883a 	mov	r4,r17
   429c8:	800b883a 	mov	r5,r16
   429cc:	00454740 	call	45474 <__smakebuf_r>
   429d0:	8080030b 	ldhu	r2,12(r16)
   429d4:	80c00417 	ldw	r3,16(r16)
   429d8:	003fe206 	br	42964 <__alt_data_end+0xfffd1c24>
   429dc:	80800517 	ldw	r2,20(r16)
   429e0:	80000215 	stw	zero,8(r16)
   429e4:	0085c83a 	sub	r2,zero,r2
   429e8:	80800615 	stw	r2,24(r16)
   429ec:	183fe41e 	bne	r3,zero,42980 <__alt_data_end+0xfffd1c40>
   429f0:	8080030b 	ldhu	r2,12(r16)
   429f4:	1080200c 	andi	r2,r2,128
   429f8:	103fe226 	beq	r2,zero,42984 <__alt_data_end+0xfffd1c44>
   429fc:	00bfffc4 	movi	r2,-1
   42a00:	003fe006 	br	42984 <__alt_data_end+0xfffd1c44>
   42a04:	004491c0 	call	4491c <__sinit>
   42a08:	003fd006 	br	4294c <__alt_data_end+0xfffd1c0c>
   42a0c:	0005883a 	mov	r2,zero
   42a10:	003fd906 	br	42978 <__alt_data_end+0xfffd1c38>
   42a14:	81400c17 	ldw	r5,48(r16)
   42a18:	28000626 	beq	r5,zero,42a34 <__swsetup_r+0x118>
   42a1c:	80801004 	addi	r2,r16,64
   42a20:	28800326 	beq	r5,r2,42a30 <__swsetup_r+0x114>
   42a24:	8809883a 	mov	r4,r17
   42a28:	0044a900 	call	44a90 <_free_r>
   42a2c:	8180030b 	ldhu	r6,12(r16)
   42a30:	80000c15 	stw	zero,48(r16)
   42a34:	80c00417 	ldw	r3,16(r16)
   42a38:	00bff6c4 	movi	r2,-37
   42a3c:	118c703a 	and	r6,r2,r6
   42a40:	80000115 	stw	zero,4(r16)
   42a44:	80c00015 	stw	r3,0(r16)
   42a48:	003fd806 	br	429ac <__alt_data_end+0xfffd1c6c>

00042a4c <quorem>:
   42a4c:	defff704 	addi	sp,sp,-36
   42a50:	dc800215 	stw	r18,8(sp)
   42a54:	20800417 	ldw	r2,16(r4)
   42a58:	2c800417 	ldw	r18,16(r5)
   42a5c:	dfc00815 	stw	ra,32(sp)
   42a60:	ddc00715 	stw	r23,28(sp)
   42a64:	dd800615 	stw	r22,24(sp)
   42a68:	dd400515 	stw	r21,20(sp)
   42a6c:	dd000415 	stw	r20,16(sp)
   42a70:	dcc00315 	stw	r19,12(sp)
   42a74:	dc400115 	stw	r17,4(sp)
   42a78:	dc000015 	stw	r16,0(sp)
   42a7c:	14807116 	blt	r2,r18,42c44 <quorem+0x1f8>
   42a80:	94bfffc4 	addi	r18,r18,-1
   42a84:	94ad883a 	add	r22,r18,r18
   42a88:	b5ad883a 	add	r22,r22,r22
   42a8c:	2c400504 	addi	r17,r5,20
   42a90:	8da9883a 	add	r20,r17,r22
   42a94:	25400504 	addi	r21,r4,20
   42a98:	282f883a 	mov	r23,r5
   42a9c:	adad883a 	add	r22,r21,r22
   42aa0:	a1400017 	ldw	r5,0(r20)
   42aa4:	2021883a 	mov	r16,r4
   42aa8:	b1000017 	ldw	r4,0(r22)
   42aac:	29400044 	addi	r5,r5,1
   42ab0:	00407200 	call	40720 <__udivsi3>
   42ab4:	1027883a 	mov	r19,r2
   42ab8:	10002c26 	beq	r2,zero,42b6c <quorem+0x120>
   42abc:	a813883a 	mov	r9,r21
   42ac0:	8811883a 	mov	r8,r17
   42ac4:	0009883a 	mov	r4,zero
   42ac8:	000d883a 	mov	r6,zero
   42acc:	41c00017 	ldw	r7,0(r8)
   42ad0:	49400017 	ldw	r5,0(r9)
   42ad4:	42000104 	addi	r8,r8,4
   42ad8:	38bfffcc 	andi	r2,r7,65535
   42adc:	14c5383a 	mul	r2,r2,r19
   42ae0:	380ed43a 	srli	r7,r7,16
   42ae4:	28ffffcc 	andi	r3,r5,65535
   42ae8:	2085883a 	add	r2,r4,r2
   42aec:	1008d43a 	srli	r4,r2,16
   42af0:	3ccf383a 	mul	r7,r7,r19
   42af4:	198d883a 	add	r6,r3,r6
   42af8:	10ffffcc 	andi	r3,r2,65535
   42afc:	30c7c83a 	sub	r3,r6,r3
   42b00:	280ad43a 	srli	r5,r5,16
   42b04:	21c9883a 	add	r4,r4,r7
   42b08:	180dd43a 	srai	r6,r3,16
   42b0c:	20bfffcc 	andi	r2,r4,65535
   42b10:	288bc83a 	sub	r5,r5,r2
   42b14:	298b883a 	add	r5,r5,r6
   42b18:	280e943a 	slli	r7,r5,16
   42b1c:	18ffffcc 	andi	r3,r3,65535
   42b20:	2008d43a 	srli	r4,r4,16
   42b24:	38ceb03a 	or	r7,r7,r3
   42b28:	49c00015 	stw	r7,0(r9)
   42b2c:	280dd43a 	srai	r6,r5,16
   42b30:	4a400104 	addi	r9,r9,4
   42b34:	a23fe52e 	bgeu	r20,r8,42acc <__alt_data_end+0xfffd1d8c>
   42b38:	b0800017 	ldw	r2,0(r22)
   42b3c:	10000b1e 	bne	r2,zero,42b6c <quorem+0x120>
   42b40:	b0bfff04 	addi	r2,r22,-4
   42b44:	a880082e 	bgeu	r21,r2,42b68 <quorem+0x11c>
   42b48:	b0ffff17 	ldw	r3,-4(r22)
   42b4c:	18000326 	beq	r3,zero,42b5c <quorem+0x110>
   42b50:	00000506 	br	42b68 <quorem+0x11c>
   42b54:	10c00017 	ldw	r3,0(r2)
   42b58:	1800031e 	bne	r3,zero,42b68 <quorem+0x11c>
   42b5c:	10bfff04 	addi	r2,r2,-4
   42b60:	94bfffc4 	addi	r18,r18,-1
   42b64:	a8bffb36 	bltu	r21,r2,42b54 <__alt_data_end+0xfffd1e14>
   42b68:	84800415 	stw	r18,16(r16)
   42b6c:	8009883a 	mov	r4,r16
   42b70:	b80b883a 	mov	r5,r23
   42b74:	0046b340 	call	46b34 <__mcmp>
   42b78:	10002616 	blt	r2,zero,42c14 <quorem+0x1c8>
   42b7c:	9cc00044 	addi	r19,r19,1
   42b80:	a80d883a 	mov	r6,r21
   42b84:	000b883a 	mov	r5,zero
   42b88:	31000017 	ldw	r4,0(r6)
   42b8c:	88800017 	ldw	r2,0(r17)
   42b90:	31800104 	addi	r6,r6,4
   42b94:	20ffffcc 	andi	r3,r4,65535
   42b98:	194b883a 	add	r5,r3,r5
   42b9c:	10ffffcc 	andi	r3,r2,65535
   42ba0:	28c7c83a 	sub	r3,r5,r3
   42ba4:	1004d43a 	srli	r2,r2,16
   42ba8:	2008d43a 	srli	r4,r4,16
   42bac:	180bd43a 	srai	r5,r3,16
   42bb0:	18ffffcc 	andi	r3,r3,65535
   42bb4:	2089c83a 	sub	r4,r4,r2
   42bb8:	2149883a 	add	r4,r4,r5
   42bbc:	2004943a 	slli	r2,r4,16
   42bc0:	8c400104 	addi	r17,r17,4
   42bc4:	200bd43a 	srai	r5,r4,16
   42bc8:	10c6b03a 	or	r3,r2,r3
   42bcc:	30ffff15 	stw	r3,-4(r6)
   42bd0:	a47fed2e 	bgeu	r20,r17,42b88 <__alt_data_end+0xfffd1e48>
   42bd4:	9485883a 	add	r2,r18,r18
   42bd8:	1085883a 	add	r2,r2,r2
   42bdc:	a887883a 	add	r3,r21,r2
   42be0:	18800017 	ldw	r2,0(r3)
   42be4:	10000b1e 	bne	r2,zero,42c14 <quorem+0x1c8>
   42be8:	18bfff04 	addi	r2,r3,-4
   42bec:	a880082e 	bgeu	r21,r2,42c10 <quorem+0x1c4>
   42bf0:	18ffff17 	ldw	r3,-4(r3)
   42bf4:	18000326 	beq	r3,zero,42c04 <quorem+0x1b8>
   42bf8:	00000506 	br	42c10 <quorem+0x1c4>
   42bfc:	10c00017 	ldw	r3,0(r2)
   42c00:	1800031e 	bne	r3,zero,42c10 <quorem+0x1c4>
   42c04:	10bfff04 	addi	r2,r2,-4
   42c08:	94bfffc4 	addi	r18,r18,-1
   42c0c:	a8bffb36 	bltu	r21,r2,42bfc <__alt_data_end+0xfffd1ebc>
   42c10:	84800415 	stw	r18,16(r16)
   42c14:	9805883a 	mov	r2,r19
   42c18:	dfc00817 	ldw	ra,32(sp)
   42c1c:	ddc00717 	ldw	r23,28(sp)
   42c20:	dd800617 	ldw	r22,24(sp)
   42c24:	dd400517 	ldw	r21,20(sp)
   42c28:	dd000417 	ldw	r20,16(sp)
   42c2c:	dcc00317 	ldw	r19,12(sp)
   42c30:	dc800217 	ldw	r18,8(sp)
   42c34:	dc400117 	ldw	r17,4(sp)
   42c38:	dc000017 	ldw	r16,0(sp)
   42c3c:	dec00904 	addi	sp,sp,36
   42c40:	f800283a 	ret
   42c44:	0005883a 	mov	r2,zero
   42c48:	003ff306 	br	42c18 <__alt_data_end+0xfffd1ed8>

00042c4c <_dtoa_r>:
   42c4c:	20801017 	ldw	r2,64(r4)
   42c50:	deffde04 	addi	sp,sp,-136
   42c54:	dd401d15 	stw	r21,116(sp)
   42c58:	dcc01b15 	stw	r19,108(sp)
   42c5c:	dc801a15 	stw	r18,104(sp)
   42c60:	dc401915 	stw	r17,100(sp)
   42c64:	dc001815 	stw	r16,96(sp)
   42c68:	dfc02115 	stw	ra,132(sp)
   42c6c:	df002015 	stw	fp,128(sp)
   42c70:	ddc01f15 	stw	r23,124(sp)
   42c74:	dd801e15 	stw	r22,120(sp)
   42c78:	dd001c15 	stw	r20,112(sp)
   42c7c:	d9c00315 	stw	r7,12(sp)
   42c80:	2021883a 	mov	r16,r4
   42c84:	302b883a 	mov	r21,r6
   42c88:	2825883a 	mov	r18,r5
   42c8c:	dc402417 	ldw	r17,144(sp)
   42c90:	3027883a 	mov	r19,r6
   42c94:	10000826 	beq	r2,zero,42cb8 <_dtoa_r+0x6c>
   42c98:	21801117 	ldw	r6,68(r4)
   42c9c:	00c00044 	movi	r3,1
   42ca0:	100b883a 	mov	r5,r2
   42ca4:	1986983a 	sll	r3,r3,r6
   42ca8:	11800115 	stw	r6,4(r2)
   42cac:	10c00215 	stw	r3,8(r2)
   42cb0:	004631c0 	call	4631c <_Bfree>
   42cb4:	80001015 	stw	zero,64(r16)
   42cb8:	a8002d16 	blt	r21,zero,42d70 <_dtoa_r+0x124>
   42cbc:	88000015 	stw	zero,0(r17)
   42cc0:	a8dffc2c 	andhi	r3,r21,32752
   42cc4:	009ffc34 	movhi	r2,32752
   42cc8:	18801b26 	beq	r3,r2,42d38 <_dtoa_r+0xec>
   42ccc:	9009883a 	mov	r4,r18
   42cd0:	980b883a 	mov	r5,r19
   42cd4:	000d883a 	mov	r6,zero
   42cd8:	000f883a 	mov	r7,zero
   42cdc:	004b4cc0 	call	4b4cc <__eqdf2>
   42ce0:	10002a1e 	bne	r2,zero,42d8c <_dtoa_r+0x140>
   42ce4:	d8c02317 	ldw	r3,140(sp)
   42ce8:	d9002517 	ldw	r4,148(sp)
   42cec:	00800044 	movi	r2,1
   42cf0:	18800015 	stw	r2,0(r3)
   42cf4:	2001a226 	beq	r4,zero,43380 <_dtoa_r+0x734>
   42cf8:	00800174 	movhi	r2,5
   42cfc:	109e7844 	addi	r2,r2,31201
   42d00:	20800015 	stw	r2,0(r4)
   42d04:	10bfffc4 	addi	r2,r2,-1
   42d08:	dfc02117 	ldw	ra,132(sp)
   42d0c:	df002017 	ldw	fp,128(sp)
   42d10:	ddc01f17 	ldw	r23,124(sp)
   42d14:	dd801e17 	ldw	r22,120(sp)
   42d18:	dd401d17 	ldw	r21,116(sp)
   42d1c:	dd001c17 	ldw	r20,112(sp)
   42d20:	dcc01b17 	ldw	r19,108(sp)
   42d24:	dc801a17 	ldw	r18,104(sp)
   42d28:	dc401917 	ldw	r17,100(sp)
   42d2c:	dc001817 	ldw	r16,96(sp)
   42d30:	dec02204 	addi	sp,sp,136
   42d34:	f800283a 	ret
   42d38:	d8c02317 	ldw	r3,140(sp)
   42d3c:	0089c3c4 	movi	r2,9999
   42d40:	18800015 	stw	r2,0(r3)
   42d44:	90017c26 	beq	r18,zero,43338 <_dtoa_r+0x6ec>
   42d48:	00800174 	movhi	r2,5
   42d4c:	109e8404 	addi	r2,r2,31248
   42d50:	d9002517 	ldw	r4,148(sp)
   42d54:	203fec26 	beq	r4,zero,42d08 <__alt_data_end+0xfffd1fc8>
   42d58:	10c000c7 	ldb	r3,3(r2)
   42d5c:	18017d1e 	bne	r3,zero,43354 <_dtoa_r+0x708>
   42d60:	10c000c4 	addi	r3,r2,3
   42d64:	d9802517 	ldw	r6,148(sp)
   42d68:	30c00015 	stw	r3,0(r6)
   42d6c:	003fe606 	br	42d08 <__alt_data_end+0xfffd1fc8>
   42d70:	04e00034 	movhi	r19,32768
   42d74:	9cffffc4 	addi	r19,r19,-1
   42d78:	00800044 	movi	r2,1
   42d7c:	ace6703a 	and	r19,r21,r19
   42d80:	88800015 	stw	r2,0(r17)
   42d84:	982b883a 	mov	r21,r19
   42d88:	003fcd06 	br	42cc0 <__alt_data_end+0xfffd1f80>
   42d8c:	d8800204 	addi	r2,sp,8
   42d90:	a822d53a 	srli	r17,r21,20
   42d94:	d8800015 	stw	r2,0(sp)
   42d98:	8009883a 	mov	r4,r16
   42d9c:	900b883a 	mov	r5,r18
   42da0:	980d883a 	mov	r6,r19
   42da4:	d9c00104 	addi	r7,sp,4
   42da8:	0046ea80 	call	46ea8 <__d2b>
   42dac:	1039883a 	mov	fp,r2
   42db0:	88016a1e 	bne	r17,zero,4335c <_dtoa_r+0x710>
   42db4:	dd000217 	ldw	r20,8(sp)
   42db8:	dc400117 	ldw	r17,4(sp)
   42dbc:	00befbc4 	movi	r2,-1041
   42dc0:	a463883a 	add	r17,r20,r17
   42dc4:	8882ea16 	blt	r17,r2,43970 <_dtoa_r+0xd24>
   42dc8:	00bf0384 	movi	r2,-1010
   42dcc:	1445c83a 	sub	r2,r2,r17
   42dd0:	89010484 	addi	r4,r17,1042
   42dd4:	a8aa983a 	sll	r21,r21,r2
   42dd8:	9108d83a 	srl	r4,r18,r4
   42ddc:	a908b03a 	or	r4,r21,r4
   42de0:	004c85c0 	call	4c85c <__floatunsidf>
   42de4:	017f8434 	movhi	r5,65040
   42de8:	01800044 	movi	r6,1
   42dec:	1009883a 	mov	r4,r2
   42df0:	194b883a 	add	r5,r3,r5
   42df4:	8c7fffc4 	addi	r17,r17,-1
   42df8:	d9800f15 	stw	r6,60(sp)
   42dfc:	000d883a 	mov	r6,zero
   42e00:	01cffe34 	movhi	r7,16376
   42e04:	004be340 	call	4be34 <__subdf3>
   42e08:	0198dbf4 	movhi	r6,25455
   42e0c:	01cff4f4 	movhi	r7,16339
   42e10:	1009883a 	mov	r4,r2
   42e14:	180b883a 	mov	r5,r3
   42e18:	3190d844 	addi	r6,r6,17249
   42e1c:	39e1e9c4 	addi	r7,r7,-30809
   42e20:	004b7100 	call	4b710 <__muldf3>
   42e24:	01a2d874 	movhi	r6,35681
   42e28:	01cff1f4 	movhi	r7,16327
   42e2c:	180b883a 	mov	r5,r3
   42e30:	31b22cc4 	addi	r6,r6,-14157
   42e34:	39e28a04 	addi	r7,r7,-30168
   42e38:	1009883a 	mov	r4,r2
   42e3c:	004a3640 	call	4a364 <__adddf3>
   42e40:	8809883a 	mov	r4,r17
   42e44:	102d883a 	mov	r22,r2
   42e48:	182b883a 	mov	r21,r3
   42e4c:	004c78c0 	call	4c78c <__floatsidf>
   42e50:	019427f4 	movhi	r6,20639
   42e54:	01cff4f4 	movhi	r7,16339
   42e58:	1009883a 	mov	r4,r2
   42e5c:	180b883a 	mov	r5,r3
   42e60:	319e7ec4 	addi	r6,r6,31227
   42e64:	39d104c4 	addi	r7,r7,17427
   42e68:	004b7100 	call	4b710 <__muldf3>
   42e6c:	b009883a 	mov	r4,r22
   42e70:	a80b883a 	mov	r5,r21
   42e74:	100d883a 	mov	r6,r2
   42e78:	180f883a 	mov	r7,r3
   42e7c:	004a3640 	call	4a364 <__adddf3>
   42e80:	1009883a 	mov	r4,r2
   42e84:	180b883a 	mov	r5,r3
   42e88:	102d883a 	mov	r22,r2
   42e8c:	182b883a 	mov	r21,r3
   42e90:	004c7040 	call	4c704 <__fixdfsi>
   42e94:	b009883a 	mov	r4,r22
   42e98:	a80b883a 	mov	r5,r21
   42e9c:	000d883a 	mov	r6,zero
   42ea0:	000f883a 	mov	r7,zero
   42ea4:	d8800515 	stw	r2,20(sp)
   42ea8:	004b6300 	call	4b630 <__ledf2>
   42eac:	10023116 	blt	r2,zero,43774 <_dtoa_r+0xb28>
   42eb0:	d8c00517 	ldw	r3,20(sp)
   42eb4:	00800584 	movi	r2,22
   42eb8:	10c21f36 	bltu	r2,r3,43738 <_dtoa_r+0xaec>
   42ebc:	180490fa 	slli	r2,r3,3
   42ec0:	00c00174 	movhi	r3,5
   42ec4:	18dea004 	addi	r3,r3,31360
   42ec8:	1885883a 	add	r2,r3,r2
   42ecc:	11000017 	ldw	r4,0(r2)
   42ed0:	11400117 	ldw	r5,4(r2)
   42ed4:	900d883a 	mov	r6,r18
   42ed8:	980f883a 	mov	r7,r19
   42edc:	004b5500 	call	4b550 <__gedf2>
   42ee0:	0082a70e 	bge	zero,r2,43980 <_dtoa_r+0xd34>
   42ee4:	d9000517 	ldw	r4,20(sp)
   42ee8:	d8000c15 	stw	zero,48(sp)
   42eec:	213fffc4 	addi	r4,r4,-1
   42ef0:	d9000515 	stw	r4,20(sp)
   42ef4:	a463c83a 	sub	r17,r20,r17
   42ef8:	8dbfffc4 	addi	r22,r17,-1
   42efc:	b0021916 	blt	r22,zero,43764 <_dtoa_r+0xb18>
   42f00:	d8000815 	stw	zero,32(sp)
   42f04:	d8800517 	ldw	r2,20(sp)
   42f08:	10020e16 	blt	r2,zero,43744 <_dtoa_r+0xaf8>
   42f0c:	b0ad883a 	add	r22,r22,r2
   42f10:	d8800a15 	stw	r2,40(sp)
   42f14:	d8000915 	stw	zero,36(sp)
   42f18:	d8c00317 	ldw	r3,12(sp)
   42f1c:	00800244 	movi	r2,9
   42f20:	10c11a36 	bltu	r2,r3,4338c <_dtoa_r+0x740>
   42f24:	00800144 	movi	r2,5
   42f28:	10c4fc0e 	bge	r2,r3,4431c <_dtoa_r+0x16d0>
   42f2c:	18ffff04 	addi	r3,r3,-4
   42f30:	d8c00315 	stw	r3,12(sp)
   42f34:	0029883a 	mov	r20,zero
   42f38:	d9800317 	ldw	r6,12(sp)
   42f3c:	008000c4 	movi	r2,3
   42f40:	3083bd26 	beq	r6,r2,43e38 <_dtoa_r+0x11ec>
   42f44:	1183670e 	bge	r2,r6,43ce4 <_dtoa_r+0x1098>
   42f48:	d8c00317 	ldw	r3,12(sp)
   42f4c:	00800104 	movi	r2,4
   42f50:	1882e726 	beq	r3,r2,43af0 <_dtoa_r+0xea4>
   42f54:	00800144 	movi	r2,5
   42f58:	1884f21e 	bne	r3,r2,44324 <_dtoa_r+0x16d8>
   42f5c:	00800044 	movi	r2,1
   42f60:	d8800b15 	stw	r2,44(sp)
   42f64:	d8c02217 	ldw	r3,136(sp)
   42f68:	d9000517 	ldw	r4,20(sp)
   42f6c:	1907883a 	add	r3,r3,r4
   42f70:	19800044 	addi	r6,r3,1
   42f74:	d8c00d15 	stw	r3,52(sp)
   42f78:	d9800615 	stw	r6,24(sp)
   42f7c:	0183c30e 	bge	zero,r6,43e8c <_dtoa_r+0x1240>
   42f80:	d9800617 	ldw	r6,24(sp)
   42f84:	3023883a 	mov	r17,r6
   42f88:	80001115 	stw	zero,68(r16)
   42f8c:	008005c4 	movi	r2,23
   42f90:	1184f62e 	bgeu	r2,r6,4436c <_dtoa_r+0x1720>
   42f94:	00c00044 	movi	r3,1
   42f98:	00800104 	movi	r2,4
   42f9c:	1085883a 	add	r2,r2,r2
   42fa0:	11000504 	addi	r4,r2,20
   42fa4:	180b883a 	mov	r5,r3
   42fa8:	18c00044 	addi	r3,r3,1
   42fac:	313ffb2e 	bgeu	r6,r4,42f9c <__alt_data_end+0xfffd225c>
   42fb0:	81401115 	stw	r5,68(r16)
   42fb4:	8009883a 	mov	r4,r16
   42fb8:	00462740 	call	46274 <_Balloc>
   42fbc:	d8800715 	stw	r2,28(sp)
   42fc0:	80801015 	stw	r2,64(r16)
   42fc4:	00800384 	movi	r2,14
   42fc8:	1440fd36 	bltu	r2,r17,433c0 <_dtoa_r+0x774>
   42fcc:	a000fc26 	beq	r20,zero,433c0 <_dtoa_r+0x774>
   42fd0:	d8800517 	ldw	r2,20(sp)
   42fd4:	0083b90e 	bge	zero,r2,43ebc <_dtoa_r+0x1270>
   42fd8:	d8c00517 	ldw	r3,20(sp)
   42fdc:	108003cc 	andi	r2,r2,15
   42fe0:	100490fa 	slli	r2,r2,3
   42fe4:	182fd13a 	srai	r23,r3,4
   42fe8:	00c00174 	movhi	r3,5
   42fec:	18dea004 	addi	r3,r3,31360
   42ff0:	1885883a 	add	r2,r3,r2
   42ff4:	b8c0040c 	andi	r3,r23,16
   42ff8:	12c00017 	ldw	r11,0(r2)
   42ffc:	12800117 	ldw	r10,4(r2)
   43000:	18039726 	beq	r3,zero,43e60 <_dtoa_r+0x1214>
   43004:	00800174 	movhi	r2,5
   43008:	109e9604 	addi	r2,r2,31320
   4300c:	11800817 	ldw	r6,32(r2)
   43010:	11c00917 	ldw	r7,36(r2)
   43014:	9009883a 	mov	r4,r18
   43018:	980b883a 	mov	r5,r19
   4301c:	da801615 	stw	r10,88(sp)
   43020:	dac01515 	stw	r11,84(sp)
   43024:	004ac000 	call	4ac00 <__divdf3>
   43028:	da801617 	ldw	r10,88(sp)
   4302c:	dac01517 	ldw	r11,84(sp)
   43030:	bdc003cc 	andi	r23,r23,15
   43034:	044000c4 	movi	r17,3
   43038:	d8800e15 	stw	r2,56(sp)
   4303c:	182b883a 	mov	r21,r3
   43040:	b8001126 	beq	r23,zero,43088 <_dtoa_r+0x43c>
   43044:	05000174 	movhi	r20,5
   43048:	a51e9604 	addi	r20,r20,31320
   4304c:	5805883a 	mov	r2,r11
   43050:	5007883a 	mov	r3,r10
   43054:	b980004c 	andi	r6,r23,1
   43058:	1009883a 	mov	r4,r2
   4305c:	b82fd07a 	srai	r23,r23,1
   43060:	180b883a 	mov	r5,r3
   43064:	30000426 	beq	r6,zero,43078 <_dtoa_r+0x42c>
   43068:	a1800017 	ldw	r6,0(r20)
   4306c:	a1c00117 	ldw	r7,4(r20)
   43070:	8c400044 	addi	r17,r17,1
   43074:	004b7100 	call	4b710 <__muldf3>
   43078:	a5000204 	addi	r20,r20,8
   4307c:	b83ff51e 	bne	r23,zero,43054 <__alt_data_end+0xfffd2314>
   43080:	1017883a 	mov	r11,r2
   43084:	1815883a 	mov	r10,r3
   43088:	d9000e17 	ldw	r4,56(sp)
   4308c:	a80b883a 	mov	r5,r21
   43090:	580d883a 	mov	r6,r11
   43094:	500f883a 	mov	r7,r10
   43098:	004ac000 	call	4ac00 <__divdf3>
   4309c:	1029883a 	mov	r20,r2
   430a0:	182b883a 	mov	r21,r3
   430a4:	d9800c17 	ldw	r6,48(sp)
   430a8:	30000626 	beq	r6,zero,430c4 <_dtoa_r+0x478>
   430ac:	a009883a 	mov	r4,r20
   430b0:	a80b883a 	mov	r5,r21
   430b4:	000d883a 	mov	r6,zero
   430b8:	01cffc34 	movhi	r7,16368
   430bc:	004b6300 	call	4b630 <__ledf2>
   430c0:	10043216 	blt	r2,zero,4418c <_dtoa_r+0x1540>
   430c4:	8809883a 	mov	r4,r17
   430c8:	004c78c0 	call	4c78c <__floatsidf>
   430cc:	1009883a 	mov	r4,r2
   430d0:	180b883a 	mov	r5,r3
   430d4:	a00d883a 	mov	r6,r20
   430d8:	a80f883a 	mov	r7,r21
   430dc:	004b7100 	call	4b710 <__muldf3>
   430e0:	000d883a 	mov	r6,zero
   430e4:	1009883a 	mov	r4,r2
   430e8:	180b883a 	mov	r5,r3
   430ec:	01d00734 	movhi	r7,16412
   430f0:	004a3640 	call	4a364 <__adddf3>
   430f4:	1023883a 	mov	r17,r2
   430f8:	d9800617 	ldw	r6,24(sp)
   430fc:	00bf3034 	movhi	r2,64704
   43100:	1885883a 	add	r2,r3,r2
   43104:	d8800e15 	stw	r2,56(sp)
   43108:	30032e26 	beq	r6,zero,43dc4 <_dtoa_r+0x1178>
   4310c:	d8c00517 	ldw	r3,20(sp)
   43110:	da800617 	ldw	r10,24(sp)
   43114:	d8c01215 	stw	r3,72(sp)
   43118:	d9000b17 	ldw	r4,44(sp)
   4311c:	2003b026 	beq	r4,zero,43fe0 <_dtoa_r+0x1394>
   43120:	50bfffc4 	addi	r2,r10,-1
   43124:	100490fa 	slli	r2,r2,3
   43128:	00c00174 	movhi	r3,5
   4312c:	18dea004 	addi	r3,r3,31360
   43130:	1885883a 	add	r2,r3,r2
   43134:	11800017 	ldw	r6,0(r2)
   43138:	11c00117 	ldw	r7,4(r2)
   4313c:	d8800717 	ldw	r2,28(sp)
   43140:	0009883a 	mov	r4,zero
   43144:	014ff834 	movhi	r5,16352
   43148:	da801615 	stw	r10,88(sp)
   4314c:	15c00044 	addi	r23,r2,1
   43150:	004ac000 	call	4ac00 <__divdf3>
   43154:	d9c00e17 	ldw	r7,56(sp)
   43158:	880d883a 	mov	r6,r17
   4315c:	1009883a 	mov	r4,r2
   43160:	180b883a 	mov	r5,r3
   43164:	004be340 	call	4be34 <__subdf3>
   43168:	a80b883a 	mov	r5,r21
   4316c:	a009883a 	mov	r4,r20
   43170:	d8c01015 	stw	r3,64(sp)
   43174:	d8800e15 	stw	r2,56(sp)
   43178:	004c7040 	call	4c704 <__fixdfsi>
   4317c:	1009883a 	mov	r4,r2
   43180:	d8801715 	stw	r2,92(sp)
   43184:	004c78c0 	call	4c78c <__floatsidf>
   43188:	a009883a 	mov	r4,r20
   4318c:	a80b883a 	mov	r5,r21
   43190:	100d883a 	mov	r6,r2
   43194:	180f883a 	mov	r7,r3
   43198:	004be340 	call	4be34 <__subdf3>
   4319c:	da001717 	ldw	r8,92(sp)
   431a0:	1829883a 	mov	r20,r3
   431a4:	d8c00717 	ldw	r3,28(sp)
   431a8:	d9000e17 	ldw	r4,56(sp)
   431ac:	d9401017 	ldw	r5,64(sp)
   431b0:	42000c04 	addi	r8,r8,48
   431b4:	1023883a 	mov	r17,r2
   431b8:	1a000005 	stb	r8,0(r3)
   431bc:	880d883a 	mov	r6,r17
   431c0:	a00f883a 	mov	r7,r20
   431c4:	402b883a 	mov	r21,r8
   431c8:	004b5500 	call	4b550 <__gedf2>
   431cc:	00844516 	blt	zero,r2,442e4 <_dtoa_r+0x1698>
   431d0:	0009883a 	mov	r4,zero
   431d4:	014ffc34 	movhi	r5,16368
   431d8:	880d883a 	mov	r6,r17
   431dc:	a00f883a 	mov	r7,r20
   431e0:	004be340 	call	4be34 <__subdf3>
   431e4:	d9000e17 	ldw	r4,56(sp)
   431e8:	d9401017 	ldw	r5,64(sp)
   431ec:	100d883a 	mov	r6,r2
   431f0:	180f883a 	mov	r7,r3
   431f4:	004b5500 	call	4b550 <__gedf2>
   431f8:	da801617 	ldw	r10,88(sp)
   431fc:	00843616 	blt	zero,r2,442d8 <_dtoa_r+0x168c>
   43200:	00800044 	movi	r2,1
   43204:	12806e0e 	bge	r2,r10,433c0 <_dtoa_r+0x774>
   43208:	d9000717 	ldw	r4,28(sp)
   4320c:	dd801315 	stw	r22,76(sp)
   43210:	dc001115 	stw	r16,68(sp)
   43214:	2295883a 	add	r10,r4,r10
   43218:	dcc01415 	stw	r19,80(sp)
   4321c:	502d883a 	mov	r22,r10
   43220:	dcc01017 	ldw	r19,64(sp)
   43224:	b821883a 	mov	r16,r23
   43228:	dc801015 	stw	r18,64(sp)
   4322c:	dc800e17 	ldw	r18,56(sp)
   43230:	00000906 	br	43258 <_dtoa_r+0x60c>
   43234:	004be340 	call	4be34 <__subdf3>
   43238:	1009883a 	mov	r4,r2
   4323c:	180b883a 	mov	r5,r3
   43240:	900d883a 	mov	r6,r18
   43244:	980f883a 	mov	r7,r19
   43248:	004b6300 	call	4b630 <__ledf2>
   4324c:	10040e16 	blt	r2,zero,44288 <_dtoa_r+0x163c>
   43250:	b821883a 	mov	r16,r23
   43254:	bd841026 	beq	r23,r22,44298 <_dtoa_r+0x164c>
   43258:	9009883a 	mov	r4,r18
   4325c:	980b883a 	mov	r5,r19
   43260:	000d883a 	mov	r6,zero
   43264:	01d00934 	movhi	r7,16420
   43268:	004b7100 	call	4b710 <__muldf3>
   4326c:	000d883a 	mov	r6,zero
   43270:	01d00934 	movhi	r7,16420
   43274:	8809883a 	mov	r4,r17
   43278:	a00b883a 	mov	r5,r20
   4327c:	1025883a 	mov	r18,r2
   43280:	1827883a 	mov	r19,r3
   43284:	004b7100 	call	4b710 <__muldf3>
   43288:	180b883a 	mov	r5,r3
   4328c:	1009883a 	mov	r4,r2
   43290:	1823883a 	mov	r17,r3
   43294:	1029883a 	mov	r20,r2
   43298:	004c7040 	call	4c704 <__fixdfsi>
   4329c:	1009883a 	mov	r4,r2
   432a0:	102b883a 	mov	r21,r2
   432a4:	004c78c0 	call	4c78c <__floatsidf>
   432a8:	a009883a 	mov	r4,r20
   432ac:	880b883a 	mov	r5,r17
   432b0:	100d883a 	mov	r6,r2
   432b4:	180f883a 	mov	r7,r3
   432b8:	004be340 	call	4be34 <__subdf3>
   432bc:	ad400c04 	addi	r21,r21,48
   432c0:	1009883a 	mov	r4,r2
   432c4:	180b883a 	mov	r5,r3
   432c8:	900d883a 	mov	r6,r18
   432cc:	980f883a 	mov	r7,r19
   432d0:	85400005 	stb	r21,0(r16)
   432d4:	1023883a 	mov	r17,r2
   432d8:	1829883a 	mov	r20,r3
   432dc:	004b6300 	call	4b630 <__ledf2>
   432e0:	bdc00044 	addi	r23,r23,1
   432e4:	0009883a 	mov	r4,zero
   432e8:	014ffc34 	movhi	r5,16368
   432ec:	880d883a 	mov	r6,r17
   432f0:	a00f883a 	mov	r7,r20
   432f4:	103fcf0e 	bge	r2,zero,43234 <__alt_data_end+0xfffd24f4>
   432f8:	d9801217 	ldw	r6,72(sp)
   432fc:	dc001117 	ldw	r16,68(sp)
   43300:	d9800515 	stw	r6,20(sp)
   43304:	8009883a 	mov	r4,r16
   43308:	e00b883a 	mov	r5,fp
   4330c:	004631c0 	call	4631c <_Bfree>
   43310:	d8c00517 	ldw	r3,20(sp)
   43314:	d9002317 	ldw	r4,140(sp)
   43318:	d9802517 	ldw	r6,148(sp)
   4331c:	b8000005 	stb	zero,0(r23)
   43320:	18800044 	addi	r2,r3,1
   43324:	20800015 	stw	r2,0(r4)
   43328:	30027226 	beq	r6,zero,43cf4 <_dtoa_r+0x10a8>
   4332c:	35c00015 	stw	r23,0(r6)
   43330:	d8800717 	ldw	r2,28(sp)
   43334:	003e7406 	br	42d08 <__alt_data_end+0xfffd1fc8>
   43338:	00800434 	movhi	r2,16
   4333c:	10bfffc4 	addi	r2,r2,-1
   43340:	a8aa703a 	and	r21,r21,r2
   43344:	a83e801e 	bne	r21,zero,42d48 <__alt_data_end+0xfffd2008>
   43348:	00800174 	movhi	r2,5
   4334c:	109e8104 	addi	r2,r2,31236
   43350:	003e7f06 	br	42d50 <__alt_data_end+0xfffd2010>
   43354:	10c00204 	addi	r3,r2,8
   43358:	003e8206 	br	42d64 <__alt_data_end+0xfffd2024>
   4335c:	01400434 	movhi	r5,16
   43360:	297fffc4 	addi	r5,r5,-1
   43364:	994a703a 	and	r5,r19,r5
   43368:	9009883a 	mov	r4,r18
   4336c:	8c7f0044 	addi	r17,r17,-1023
   43370:	294ffc34 	orhi	r5,r5,16368
   43374:	dd000217 	ldw	r20,8(sp)
   43378:	d8000f15 	stw	zero,60(sp)
   4337c:	003e9f06 	br	42dfc <__alt_data_end+0xfffd20bc>
   43380:	00800174 	movhi	r2,5
   43384:	109e7804 	addi	r2,r2,31200
   43388:	003e5f06 	br	42d08 <__alt_data_end+0xfffd1fc8>
   4338c:	80001115 	stw	zero,68(r16)
   43390:	8009883a 	mov	r4,r16
   43394:	000b883a 	mov	r5,zero
   43398:	00462740 	call	46274 <_Balloc>
   4339c:	01bfffc4 	movi	r6,-1
   433a0:	d8800715 	stw	r2,28(sp)
   433a4:	80801015 	stw	r2,64(r16)
   433a8:	00800044 	movi	r2,1
   433ac:	d9800615 	stw	r6,24(sp)
   433b0:	d8800b15 	stw	r2,44(sp)
   433b4:	d8002215 	stw	zero,136(sp)
   433b8:	d9800d15 	stw	r6,52(sp)
   433bc:	d8000315 	stw	zero,12(sp)
   433c0:	d8800117 	ldw	r2,4(sp)
   433c4:	10008e16 	blt	r2,zero,43600 <_dtoa_r+0x9b4>
   433c8:	d9000517 	ldw	r4,20(sp)
   433cc:	00c00384 	movi	r3,14
   433d0:	19008b16 	blt	r3,r4,43600 <_dtoa_r+0x9b4>
   433d4:	200490fa 	slli	r2,r4,3
   433d8:	00c00174 	movhi	r3,5
   433dc:	d9802217 	ldw	r6,136(sp)
   433e0:	18dea004 	addi	r3,r3,31360
   433e4:	1885883a 	add	r2,r3,r2
   433e8:	14400017 	ldw	r17,0(r2)
   433ec:	15000117 	ldw	r20,4(r2)
   433f0:	3001c716 	blt	r6,zero,43b10 <_dtoa_r+0xec4>
   433f4:	880d883a 	mov	r6,r17
   433f8:	a00f883a 	mov	r7,r20
   433fc:	9009883a 	mov	r4,r18
   43400:	980b883a 	mov	r5,r19
   43404:	004ac000 	call	4ac00 <__divdf3>
   43408:	180b883a 	mov	r5,r3
   4340c:	1009883a 	mov	r4,r2
   43410:	004c7040 	call	4c704 <__fixdfsi>
   43414:	1009883a 	mov	r4,r2
   43418:	102d883a 	mov	r22,r2
   4341c:	004c78c0 	call	4c78c <__floatsidf>
   43420:	1009883a 	mov	r4,r2
   43424:	180b883a 	mov	r5,r3
   43428:	880d883a 	mov	r6,r17
   4342c:	a00f883a 	mov	r7,r20
   43430:	004b7100 	call	4b710 <__muldf3>
   43434:	9009883a 	mov	r4,r18
   43438:	980b883a 	mov	r5,r19
   4343c:	100d883a 	mov	r6,r2
   43440:	180f883a 	mov	r7,r3
   43444:	004be340 	call	4be34 <__subdf3>
   43448:	d9000717 	ldw	r4,28(sp)
   4344c:	d9800617 	ldw	r6,24(sp)
   43450:	180b883a 	mov	r5,r3
   43454:	b0c00c04 	addi	r3,r22,48
   43458:	20c00005 	stb	r3,0(r4)
   4345c:	25c00044 	addi	r23,r4,1
   43460:	01000044 	movi	r4,1
   43464:	1011883a 	mov	r8,r2
   43468:	2807883a 	mov	r3,r5
   4346c:	31003d26 	beq	r6,r4,43564 <_dtoa_r+0x918>
   43470:	000d883a 	mov	r6,zero
   43474:	01d00934 	movhi	r7,16420
   43478:	1009883a 	mov	r4,r2
   4347c:	004b7100 	call	4b710 <__muldf3>
   43480:	1009883a 	mov	r4,r2
   43484:	180b883a 	mov	r5,r3
   43488:	000d883a 	mov	r6,zero
   4348c:	000f883a 	mov	r7,zero
   43490:	1027883a 	mov	r19,r2
   43494:	182b883a 	mov	r21,r3
   43498:	004b4cc0 	call	4b4cc <__eqdf2>
   4349c:	103f9926 	beq	r2,zero,43304 <__alt_data_end+0xfffd25c4>
   434a0:	d8c00617 	ldw	r3,24(sp)
   434a4:	d9000717 	ldw	r4,28(sp)
   434a8:	b825883a 	mov	r18,r23
   434ac:	18bfffc4 	addi	r2,r3,-1
   434b0:	20ad883a 	add	r22,r4,r2
   434b4:	dc000315 	stw	r16,12(sp)
   434b8:	00000a06 	br	434e4 <_dtoa_r+0x898>
   434bc:	004b7100 	call	4b710 <__muldf3>
   434c0:	1009883a 	mov	r4,r2
   434c4:	180b883a 	mov	r5,r3
   434c8:	000d883a 	mov	r6,zero
   434cc:	000f883a 	mov	r7,zero
   434d0:	1027883a 	mov	r19,r2
   434d4:	182b883a 	mov	r21,r3
   434d8:	b825883a 	mov	r18,r23
   434dc:	004b4cc0 	call	4b4cc <__eqdf2>
   434e0:	10022626 	beq	r2,zero,43d7c <_dtoa_r+0x1130>
   434e4:	880d883a 	mov	r6,r17
   434e8:	a00f883a 	mov	r7,r20
   434ec:	9809883a 	mov	r4,r19
   434f0:	a80b883a 	mov	r5,r21
   434f4:	004ac000 	call	4ac00 <__divdf3>
   434f8:	180b883a 	mov	r5,r3
   434fc:	1009883a 	mov	r4,r2
   43500:	004c7040 	call	4c704 <__fixdfsi>
   43504:	1009883a 	mov	r4,r2
   43508:	1021883a 	mov	r16,r2
   4350c:	004c78c0 	call	4c78c <__floatsidf>
   43510:	1009883a 	mov	r4,r2
   43514:	180b883a 	mov	r5,r3
   43518:	880d883a 	mov	r6,r17
   4351c:	a00f883a 	mov	r7,r20
   43520:	004b7100 	call	4b710 <__muldf3>
   43524:	9809883a 	mov	r4,r19
   43528:	a80b883a 	mov	r5,r21
   4352c:	100d883a 	mov	r6,r2
   43530:	180f883a 	mov	r7,r3
   43534:	004be340 	call	4be34 <__subdf3>
   43538:	82000c04 	addi	r8,r16,48
   4353c:	92000005 	stb	r8,0(r18)
   43540:	1009883a 	mov	r4,r2
   43544:	180b883a 	mov	r5,r3
   43548:	000d883a 	mov	r6,zero
   4354c:	01d00934 	movhi	r7,16420
   43550:	1011883a 	mov	r8,r2
   43554:	bdc00044 	addi	r23,r23,1
   43558:	95bfd81e 	bne	r18,r22,434bc <__alt_data_end+0xfffd277c>
   4355c:	802d883a 	mov	r22,r16
   43560:	dc000317 	ldw	r16,12(sp)
   43564:	4009883a 	mov	r4,r8
   43568:	180b883a 	mov	r5,r3
   4356c:	400d883a 	mov	r6,r8
   43570:	180f883a 	mov	r7,r3
   43574:	004a3640 	call	4a364 <__adddf3>
   43578:	8809883a 	mov	r4,r17
   4357c:	a00b883a 	mov	r5,r20
   43580:	100d883a 	mov	r6,r2
   43584:	180f883a 	mov	r7,r3
   43588:	1027883a 	mov	r19,r2
   4358c:	1825883a 	mov	r18,r3
   43590:	004b6300 	call	4b630 <__ledf2>
   43594:	10000816 	blt	r2,zero,435b8 <_dtoa_r+0x96c>
   43598:	8809883a 	mov	r4,r17
   4359c:	a00b883a 	mov	r5,r20
   435a0:	980d883a 	mov	r6,r19
   435a4:	900f883a 	mov	r7,r18
   435a8:	004b4cc0 	call	4b4cc <__eqdf2>
   435ac:	103f551e 	bne	r2,zero,43304 <__alt_data_end+0xfffd25c4>
   435b0:	b580004c 	andi	r22,r22,1
   435b4:	b03f5326 	beq	r22,zero,43304 <__alt_data_end+0xfffd25c4>
   435b8:	bd7fffc3 	ldbu	r21,-1(r23)
   435bc:	b8bfffc4 	addi	r2,r23,-1
   435c0:	1007883a 	mov	r3,r2
   435c4:	01400e44 	movi	r5,57
   435c8:	d9800717 	ldw	r6,28(sp)
   435cc:	00000506 	br	435e4 <_dtoa_r+0x998>
   435d0:	18ffffc4 	addi	r3,r3,-1
   435d4:	30825e26 	beq	r6,r2,43f50 <_dtoa_r+0x1304>
   435d8:	1d400003 	ldbu	r21,0(r3)
   435dc:	102f883a 	mov	r23,r2
   435e0:	10bfffc4 	addi	r2,r2,-1
   435e4:	a9003fcc 	andi	r4,r21,255
   435e8:	2100201c 	xori	r4,r4,128
   435ec:	213fe004 	addi	r4,r4,-128
   435f0:	217ff726 	beq	r4,r5,435d0 <__alt_data_end+0xfffd2890>
   435f4:	aa000044 	addi	r8,r21,1
   435f8:	12000005 	stb	r8,0(r2)
   435fc:	003f4106 	br	43304 <__alt_data_end+0xfffd25c4>
   43600:	d8c00b17 	ldw	r3,44(sp)
   43604:	18006726 	beq	r3,zero,437a4 <_dtoa_r+0xb58>
   43608:	d9000317 	ldw	r4,12(sp)
   4360c:	00c00044 	movi	r3,1
   43610:	19016a0e 	bge	r3,r4,43bbc <_dtoa_r+0xf70>
   43614:	d8800617 	ldw	r2,24(sp)
   43618:	d8c00917 	ldw	r3,36(sp)
   4361c:	157fffc4 	addi	r21,r2,-1
   43620:	1d420716 	blt	r3,r21,43e40 <_dtoa_r+0x11f4>
   43624:	1d6bc83a 	sub	r21,r3,r21
   43628:	d8800617 	ldw	r2,24(sp)
   4362c:	1002c716 	blt	r2,zero,4414c <_dtoa_r+0x1500>
   43630:	dd000817 	ldw	r20,32(sp)
   43634:	d8800617 	ldw	r2,24(sp)
   43638:	d9800817 	ldw	r6,32(sp)
   4363c:	8009883a 	mov	r4,r16
   43640:	01400044 	movi	r5,1
   43644:	308d883a 	add	r6,r6,r2
   43648:	d9800815 	stw	r6,32(sp)
   4364c:	b0ad883a 	add	r22,r22,r2
   43650:	00466740 	call	46674 <__i2b>
   43654:	1023883a 	mov	r17,r2
   43658:	a0000826 	beq	r20,zero,4367c <_dtoa_r+0xa30>
   4365c:	0580070e 	bge	zero,r22,4367c <_dtoa_r+0xa30>
   43660:	b005883a 	mov	r2,r22
   43664:	a5812016 	blt	r20,r22,43ae8 <_dtoa_r+0xe9c>
   43668:	d8c00817 	ldw	r3,32(sp)
   4366c:	a0a9c83a 	sub	r20,r20,r2
   43670:	b0adc83a 	sub	r22,r22,r2
   43674:	1887c83a 	sub	r3,r3,r2
   43678:	d8c00815 	stw	r3,32(sp)
   4367c:	d9000917 	ldw	r4,36(sp)
   43680:	0100140e 	bge	zero,r4,436d4 <_dtoa_r+0xa88>
   43684:	d9800b17 	ldw	r6,44(sp)
   43688:	3001e526 	beq	r6,zero,43e20 <_dtoa_r+0x11d4>
   4368c:	05400e0e 	bge	zero,r21,436c8 <_dtoa_r+0xa7c>
   43690:	880b883a 	mov	r5,r17
   43694:	8009883a 	mov	r4,r16
   43698:	a80d883a 	mov	r6,r21
   4369c:	00468ac0 	call	468ac <__pow5mult>
   436a0:	e00d883a 	mov	r6,fp
   436a4:	8009883a 	mov	r4,r16
   436a8:	100b883a 	mov	r5,r2
   436ac:	1023883a 	mov	r17,r2
   436b0:	00466b00 	call	466b0 <__multiply>
   436b4:	102f883a 	mov	r23,r2
   436b8:	e00b883a 	mov	r5,fp
   436bc:	8009883a 	mov	r4,r16
   436c0:	004631c0 	call	4631c <_Bfree>
   436c4:	b839883a 	mov	fp,r23
   436c8:	d8800917 	ldw	r2,36(sp)
   436cc:	154dc83a 	sub	r6,r2,r21
   436d0:	3001281e 	bne	r6,zero,43b74 <_dtoa_r+0xf28>
   436d4:	05c00044 	movi	r23,1
   436d8:	8009883a 	mov	r4,r16
   436dc:	b80b883a 	mov	r5,r23
   436e0:	00466740 	call	46674 <__i2b>
   436e4:	d8c00a17 	ldw	r3,40(sp)
   436e8:	102b883a 	mov	r21,r2
   436ec:	00c0310e 	bge	zero,r3,437b4 <_dtoa_r+0xb68>
   436f0:	8009883a 	mov	r4,r16
   436f4:	100b883a 	mov	r5,r2
   436f8:	180d883a 	mov	r6,r3
   436fc:	00468ac0 	call	468ac <__pow5mult>
   43700:	d9000317 	ldw	r4,12(sp)
   43704:	102b883a 	mov	r21,r2
   43708:	b9011f0e 	bge	r23,r4,43b88 <_dtoa_r+0xf3c>
   4370c:	0027883a 	mov	r19,zero
   43710:	a8800417 	ldw	r2,16(r21)
   43714:	10800104 	addi	r2,r2,4
   43718:	1085883a 	add	r2,r2,r2
   4371c:	1085883a 	add	r2,r2,r2
   43720:	a885883a 	add	r2,r21,r2
   43724:	11000017 	ldw	r4,0(r2)
   43728:	004655c0 	call	4655c <__hi0bits>
   4372c:	00c00804 	movi	r3,32
   43730:	1885c83a 	sub	r2,r3,r2
   43734:	00002506 	br	437cc <_dtoa_r+0xb80>
   43738:	01800044 	movi	r6,1
   4373c:	d9800c15 	stw	r6,48(sp)
   43740:	003dec06 	br	42ef4 <__alt_data_end+0xfffd21b4>
   43744:	d8c00817 	ldw	r3,32(sp)
   43748:	d9000517 	ldw	r4,20(sp)
   4374c:	d8000a15 	stw	zero,40(sp)
   43750:	1907c83a 	sub	r3,r3,r4
   43754:	010dc83a 	sub	r6,zero,r4
   43758:	d8c00815 	stw	r3,32(sp)
   4375c:	d9800915 	stw	r6,36(sp)
   43760:	003ded06 	br	42f18 <__alt_data_end+0xfffd21d8>
   43764:	05adc83a 	sub	r22,zero,r22
   43768:	dd800815 	stw	r22,32(sp)
   4376c:	002d883a 	mov	r22,zero
   43770:	003de406 	br	42f04 <__alt_data_end+0xfffd21c4>
   43774:	d9000517 	ldw	r4,20(sp)
   43778:	004c78c0 	call	4c78c <__floatsidf>
   4377c:	1009883a 	mov	r4,r2
   43780:	180b883a 	mov	r5,r3
   43784:	b00d883a 	mov	r6,r22
   43788:	a80f883a 	mov	r7,r21
   4378c:	004b4cc0 	call	4b4cc <__eqdf2>
   43790:	103dc726 	beq	r2,zero,42eb0 <__alt_data_end+0xfffd2170>
   43794:	d8800517 	ldw	r2,20(sp)
   43798:	10bfffc4 	addi	r2,r2,-1
   4379c:	d8800515 	stw	r2,20(sp)
   437a0:	003dc306 	br	42eb0 <__alt_data_end+0xfffd2170>
   437a4:	dd400917 	ldw	r21,36(sp)
   437a8:	dd000817 	ldw	r20,32(sp)
   437ac:	0023883a 	mov	r17,zero
   437b0:	003fa906 	br	43658 <__alt_data_end+0xfffd2918>
   437b4:	d9800317 	ldw	r6,12(sp)
   437b8:	b981670e 	bge	r23,r6,43d58 <_dtoa_r+0x110c>
   437bc:	0027883a 	mov	r19,zero
   437c0:	d8c00a17 	ldw	r3,40(sp)
   437c4:	183fd21e 	bne	r3,zero,43710 <__alt_data_end+0xfffd29d0>
   437c8:	00800044 	movi	r2,1
   437cc:	1585883a 	add	r2,r2,r22
   437d0:	108007cc 	andi	r2,r2,31
   437d4:	10005f26 	beq	r2,zero,43954 <_dtoa_r+0xd08>
   437d8:	00c00804 	movi	r3,32
   437dc:	1887c83a 	sub	r3,r3,r2
   437e0:	01000104 	movi	r4,4
   437e4:	20c2dd0e 	bge	r4,r3,4435c <_dtoa_r+0x1710>
   437e8:	d9000817 	ldw	r4,32(sp)
   437ec:	00c00704 	movi	r3,28
   437f0:	1885c83a 	sub	r2,r3,r2
   437f4:	2089883a 	add	r4,r4,r2
   437f8:	d9000815 	stw	r4,32(sp)
   437fc:	a0a9883a 	add	r20,r20,r2
   43800:	b0ad883a 	add	r22,r22,r2
   43804:	d8800817 	ldw	r2,32(sp)
   43808:	0080050e 	bge	zero,r2,43820 <_dtoa_r+0xbd4>
   4380c:	e00b883a 	mov	r5,fp
   43810:	8009883a 	mov	r4,r16
   43814:	100d883a 	mov	r6,r2
   43818:	00469ec0 	call	469ec <__lshift>
   4381c:	1039883a 	mov	fp,r2
   43820:	0580050e 	bge	zero,r22,43838 <_dtoa_r+0xbec>
   43824:	a80b883a 	mov	r5,r21
   43828:	8009883a 	mov	r4,r16
   4382c:	b00d883a 	mov	r6,r22
   43830:	00469ec0 	call	469ec <__lshift>
   43834:	102b883a 	mov	r21,r2
   43838:	d8c00c17 	ldw	r3,48(sp)
   4383c:	1801161e 	bne	r3,zero,43c98 <_dtoa_r+0x104c>
   43840:	d8c00617 	ldw	r3,24(sp)
   43844:	00c12d0e 	bge	zero,r3,43cfc <_dtoa_r+0x10b0>
   43848:	d8c00b17 	ldw	r3,44(sp)
   4384c:	1800571e 	bne	r3,zero,439ac <_dtoa_r+0xd60>
   43850:	dc800717 	ldw	r18,28(sp)
   43854:	dcc00617 	ldw	r19,24(sp)
   43858:	9029883a 	mov	r20,r18
   4385c:	00000206 	br	43868 <_dtoa_r+0xc1c>
   43860:	00463440 	call	46344 <__multadd>
   43864:	1039883a 	mov	fp,r2
   43868:	e009883a 	mov	r4,fp
   4386c:	a80b883a 	mov	r5,r21
   43870:	0042a4c0 	call	42a4c <quorem>
   43874:	10800c04 	addi	r2,r2,48
   43878:	90800005 	stb	r2,0(r18)
   4387c:	94800044 	addi	r18,r18,1
   43880:	9507c83a 	sub	r3,r18,r20
   43884:	8009883a 	mov	r4,r16
   43888:	e00b883a 	mov	r5,fp
   4388c:	01800284 	movi	r6,10
   43890:	000f883a 	mov	r7,zero
   43894:	1cfff216 	blt	r3,r19,43860 <__alt_data_end+0xfffd2b20>
   43898:	1011883a 	mov	r8,r2
   4389c:	d8800617 	ldw	r2,24(sp)
   438a0:	00822e0e 	bge	zero,r2,4415c <_dtoa_r+0x1510>
   438a4:	d9000717 	ldw	r4,28(sp)
   438a8:	0025883a 	mov	r18,zero
   438ac:	20af883a 	add	r23,r4,r2
   438b0:	e00b883a 	mov	r5,fp
   438b4:	01800044 	movi	r6,1
   438b8:	8009883a 	mov	r4,r16
   438bc:	da001715 	stw	r8,92(sp)
   438c0:	00469ec0 	call	469ec <__lshift>
   438c4:	1009883a 	mov	r4,r2
   438c8:	a80b883a 	mov	r5,r21
   438cc:	1039883a 	mov	fp,r2
   438d0:	0046b340 	call	46b34 <__mcmp>
   438d4:	da001717 	ldw	r8,92(sp)
   438d8:	00816e0e 	bge	zero,r2,43e94 <_dtoa_r+0x1248>
   438dc:	b93fffc3 	ldbu	r4,-1(r23)
   438e0:	b8bfffc4 	addi	r2,r23,-1
   438e4:	1007883a 	mov	r3,r2
   438e8:	01800e44 	movi	r6,57
   438ec:	d9c00717 	ldw	r7,28(sp)
   438f0:	00000506 	br	43908 <_dtoa_r+0xcbc>
   438f4:	18ffffc4 	addi	r3,r3,-1
   438f8:	38811926 	beq	r7,r2,43d60 <_dtoa_r+0x1114>
   438fc:	19000003 	ldbu	r4,0(r3)
   43900:	102f883a 	mov	r23,r2
   43904:	10bfffc4 	addi	r2,r2,-1
   43908:	21403fcc 	andi	r5,r4,255
   4390c:	2940201c 	xori	r5,r5,128
   43910:	297fe004 	addi	r5,r5,-128
   43914:	29bff726 	beq	r5,r6,438f4 <__alt_data_end+0xfffd2bb4>
   43918:	21000044 	addi	r4,r4,1
   4391c:	11000005 	stb	r4,0(r2)
   43920:	8009883a 	mov	r4,r16
   43924:	a80b883a 	mov	r5,r21
   43928:	004631c0 	call	4631c <_Bfree>
   4392c:	883e7526 	beq	r17,zero,43304 <__alt_data_end+0xfffd25c4>
   43930:	90000426 	beq	r18,zero,43944 <_dtoa_r+0xcf8>
   43934:	94400326 	beq	r18,r17,43944 <_dtoa_r+0xcf8>
   43938:	8009883a 	mov	r4,r16
   4393c:	900b883a 	mov	r5,r18
   43940:	004631c0 	call	4631c <_Bfree>
   43944:	8009883a 	mov	r4,r16
   43948:	880b883a 	mov	r5,r17
   4394c:	004631c0 	call	4631c <_Bfree>
   43950:	003e6c06 	br	43304 <__alt_data_end+0xfffd25c4>
   43954:	00800704 	movi	r2,28
   43958:	d9800817 	ldw	r6,32(sp)
   4395c:	a0a9883a 	add	r20,r20,r2
   43960:	b0ad883a 	add	r22,r22,r2
   43964:	308d883a 	add	r6,r6,r2
   43968:	d9800815 	stw	r6,32(sp)
   4396c:	003fa506 	br	43804 <__alt_data_end+0xfffd2ac4>
   43970:	013efb84 	movi	r4,-1042
   43974:	246bc83a 	sub	r21,r4,r17
   43978:	9548983a 	sll	r4,r18,r21
   4397c:	003d1806 	br	42de0 <__alt_data_end+0xfffd20a0>
   43980:	d8000c15 	stw	zero,48(sp)
   43984:	003d5b06 	br	42ef4 <__alt_data_end+0xfffd21b4>
   43988:	880b883a 	mov	r5,r17
   4398c:	8009883a 	mov	r4,r16
   43990:	01800284 	movi	r6,10
   43994:	000f883a 	mov	r7,zero
   43998:	00463440 	call	46344 <__multadd>
   4399c:	1023883a 	mov	r17,r2
   439a0:	d8800d17 	ldw	r2,52(sp)
   439a4:	0082550e 	bge	zero,r2,442fc <_dtoa_r+0x16b0>
   439a8:	d8800615 	stw	r2,24(sp)
   439ac:	0500050e 	bge	zero,r20,439c4 <_dtoa_r+0xd78>
   439b0:	880b883a 	mov	r5,r17
   439b4:	8009883a 	mov	r4,r16
   439b8:	a00d883a 	mov	r6,r20
   439bc:	00469ec0 	call	469ec <__lshift>
   439c0:	1023883a 	mov	r17,r2
   439c4:	98016a1e 	bne	r19,zero,43f70 <_dtoa_r+0x1324>
   439c8:	8829883a 	mov	r20,r17
   439cc:	d9000617 	ldw	r4,24(sp)
   439d0:	dcc00717 	ldw	r19,28(sp)
   439d4:	9480004c 	andi	r18,r18,1
   439d8:	20bfffc4 	addi	r2,r4,-1
   439dc:	9885883a 	add	r2,r19,r2
   439e0:	d8800415 	stw	r2,16(sp)
   439e4:	dc800615 	stw	r18,24(sp)
   439e8:	e009883a 	mov	r4,fp
   439ec:	a80b883a 	mov	r5,r21
   439f0:	0042a4c0 	call	42a4c <quorem>
   439f4:	e009883a 	mov	r4,fp
   439f8:	880b883a 	mov	r5,r17
   439fc:	102f883a 	mov	r23,r2
   43a00:	0046b340 	call	46b34 <__mcmp>
   43a04:	8009883a 	mov	r4,r16
   43a08:	a80b883a 	mov	r5,r21
   43a0c:	a00d883a 	mov	r6,r20
   43a10:	102d883a 	mov	r22,r2
   43a14:	0046b940 	call	46b94 <__mdiff>
   43a18:	1007883a 	mov	r3,r2
   43a1c:	10800317 	ldw	r2,12(r2)
   43a20:	bc800c04 	addi	r18,r23,48
   43a24:	1000971e 	bne	r2,zero,43c84 <_dtoa_r+0x1038>
   43a28:	180b883a 	mov	r5,r3
   43a2c:	e009883a 	mov	r4,fp
   43a30:	d8c01515 	stw	r3,84(sp)
   43a34:	0046b340 	call	46b34 <__mcmp>
   43a38:	d8c01517 	ldw	r3,84(sp)
   43a3c:	8009883a 	mov	r4,r16
   43a40:	d8801515 	stw	r2,84(sp)
   43a44:	180b883a 	mov	r5,r3
   43a48:	004631c0 	call	4631c <_Bfree>
   43a4c:	d8801517 	ldw	r2,84(sp)
   43a50:	1000041e 	bne	r2,zero,43a64 <_dtoa_r+0xe18>
   43a54:	d9800317 	ldw	r6,12(sp)
   43a58:	3000021e 	bne	r6,zero,43a64 <_dtoa_r+0xe18>
   43a5c:	d8c00617 	ldw	r3,24(sp)
   43a60:	18007626 	beq	r3,zero,43c3c <_dtoa_r+0xff0>
   43a64:	b0005b16 	blt	r22,zero,43bd4 <_dtoa_r+0xf88>
   43a68:	b000041e 	bne	r22,zero,43a7c <_dtoa_r+0xe30>
   43a6c:	d9000317 	ldw	r4,12(sp)
   43a70:	2000021e 	bne	r4,zero,43a7c <_dtoa_r+0xe30>
   43a74:	d8c00617 	ldw	r3,24(sp)
   43a78:	18005626 	beq	r3,zero,43bd4 <_dtoa_r+0xf88>
   43a7c:	00814d16 	blt	zero,r2,43fb4 <_dtoa_r+0x1368>
   43a80:	d8c00417 	ldw	r3,16(sp)
   43a84:	9d800044 	addi	r22,r19,1
   43a88:	9c800005 	stb	r18,0(r19)
   43a8c:	b02f883a 	mov	r23,r22
   43a90:	98c14c26 	beq	r19,r3,43fc4 <_dtoa_r+0x1378>
   43a94:	e00b883a 	mov	r5,fp
   43a98:	8009883a 	mov	r4,r16
   43a9c:	01800284 	movi	r6,10
   43aa0:	000f883a 	mov	r7,zero
   43aa4:	00463440 	call	46344 <__multadd>
   43aa8:	1039883a 	mov	fp,r2
   43aac:	8d006d26 	beq	r17,r20,43c64 <_dtoa_r+0x1018>
   43ab0:	880b883a 	mov	r5,r17
   43ab4:	01800284 	movi	r6,10
   43ab8:	000f883a 	mov	r7,zero
   43abc:	8009883a 	mov	r4,r16
   43ac0:	00463440 	call	46344 <__multadd>
   43ac4:	a00b883a 	mov	r5,r20
   43ac8:	8009883a 	mov	r4,r16
   43acc:	01800284 	movi	r6,10
   43ad0:	000f883a 	mov	r7,zero
   43ad4:	1023883a 	mov	r17,r2
   43ad8:	00463440 	call	46344 <__multadd>
   43adc:	1029883a 	mov	r20,r2
   43ae0:	b027883a 	mov	r19,r22
   43ae4:	003fc006 	br	439e8 <__alt_data_end+0xfffd2ca8>
   43ae8:	a005883a 	mov	r2,r20
   43aec:	003ede06 	br	43668 <__alt_data_end+0xfffd2928>
   43af0:	01000044 	movi	r4,1
   43af4:	d9000b15 	stw	r4,44(sp)
   43af8:	d9802217 	ldw	r6,136(sp)
   43afc:	0180dc0e 	bge	zero,r6,43e70 <_dtoa_r+0x1224>
   43b00:	3023883a 	mov	r17,r6
   43b04:	d9800d15 	stw	r6,52(sp)
   43b08:	d9800615 	stw	r6,24(sp)
   43b0c:	003d1e06 	br	42f88 <__alt_data_end+0xfffd2248>
   43b10:	d8800617 	ldw	r2,24(sp)
   43b14:	00be3716 	blt	zero,r2,433f4 <__alt_data_end+0xfffd26b4>
   43b18:	1000be1e 	bne	r2,zero,43e14 <_dtoa_r+0x11c8>
   43b1c:	8809883a 	mov	r4,r17
   43b20:	a00b883a 	mov	r5,r20
   43b24:	000d883a 	mov	r6,zero
   43b28:	01d00534 	movhi	r7,16404
   43b2c:	004b7100 	call	4b710 <__muldf3>
   43b30:	1009883a 	mov	r4,r2
   43b34:	180b883a 	mov	r5,r3
   43b38:	900d883a 	mov	r6,r18
   43b3c:	980f883a 	mov	r7,r19
   43b40:	004b5500 	call	4b550 <__gedf2>
   43b44:	002b883a 	mov	r21,zero
   43b48:	0023883a 	mov	r17,zero
   43b4c:	10007a16 	blt	r2,zero,43d38 <_dtoa_r+0x10ec>
   43b50:	d9002217 	ldw	r4,136(sp)
   43b54:	ddc00717 	ldw	r23,28(sp)
   43b58:	0108303a 	nor	r4,zero,r4
   43b5c:	d9000515 	stw	r4,20(sp)
   43b60:	8009883a 	mov	r4,r16
   43b64:	a80b883a 	mov	r5,r21
   43b68:	004631c0 	call	4631c <_Bfree>
   43b6c:	883f751e 	bne	r17,zero,43944 <__alt_data_end+0xfffd2c04>
   43b70:	003de406 	br	43304 <__alt_data_end+0xfffd25c4>
   43b74:	e00b883a 	mov	r5,fp
   43b78:	8009883a 	mov	r4,r16
   43b7c:	00468ac0 	call	468ac <__pow5mult>
   43b80:	1039883a 	mov	fp,r2
   43b84:	003ed306 	br	436d4 <__alt_data_end+0xfffd2994>
   43b88:	903ee01e 	bne	r18,zero,4370c <__alt_data_end+0xfffd29cc>
   43b8c:	00800434 	movhi	r2,16
   43b90:	10bfffc4 	addi	r2,r2,-1
   43b94:	9884703a 	and	r2,r19,r2
   43b98:	103f081e 	bne	r2,zero,437bc <__alt_data_end+0xfffd2a7c>
   43b9c:	9cdffc2c 	andhi	r19,r19,32752
   43ba0:	983f0626 	beq	r19,zero,437bc <__alt_data_end+0xfffd2a7c>
   43ba4:	d8800817 	ldw	r2,32(sp)
   43ba8:	b5800044 	addi	r22,r22,1
   43bac:	04c00044 	movi	r19,1
   43bb0:	10800044 	addi	r2,r2,1
   43bb4:	d8800815 	stw	r2,32(sp)
   43bb8:	003f0106 	br	437c0 <__alt_data_end+0xfffd2a80>
   43bbc:	d9800f17 	ldw	r6,60(sp)
   43bc0:	30016826 	beq	r6,zero,44164 <_dtoa_r+0x1518>
   43bc4:	10810cc4 	addi	r2,r2,1075
   43bc8:	dd400917 	ldw	r21,36(sp)
   43bcc:	dd000817 	ldw	r20,32(sp)
   43bd0:	003e9906 	br	43638 <__alt_data_end+0xfffd28f8>
   43bd4:	9011883a 	mov	r8,r18
   43bd8:	4007883a 	mov	r3,r8
   43bdc:	e02d883a 	mov	r22,fp
   43be0:	0080100e 	bge	zero,r2,43c24 <_dtoa_r+0xfd8>
   43be4:	01800044 	movi	r6,1
   43be8:	8009883a 	mov	r4,r16
   43bec:	e00b883a 	mov	r5,fp
   43bf0:	da001515 	stw	r8,84(sp)
   43bf4:	da001715 	stw	r8,92(sp)
   43bf8:	00469ec0 	call	469ec <__lshift>
   43bfc:	1009883a 	mov	r4,r2
   43c00:	a80b883a 	mov	r5,r21
   43c04:	102d883a 	mov	r22,r2
   43c08:	0046b340 	call	46b34 <__mcmp>
   43c0c:	d8c01517 	ldw	r3,84(sp)
   43c10:	da001717 	ldw	r8,92(sp)
   43c14:	0081a50e 	bge	zero,r2,442ac <_dtoa_r+0x1660>
   43c18:	00800e44 	movi	r2,57
   43c1c:	40817b26 	beq	r8,r2,4420c <_dtoa_r+0x15c0>
   43c20:	40c00044 	addi	r3,r8,1
   43c24:	8825883a 	mov	r18,r17
   43c28:	9dc00044 	addi	r23,r19,1
   43c2c:	98c00005 	stb	r3,0(r19)
   43c30:	a023883a 	mov	r17,r20
   43c34:	b039883a 	mov	fp,r22
   43c38:	003f3906 	br	43920 <__alt_data_end+0xfffd2be0>
   43c3c:	00800e44 	movi	r2,57
   43c40:	9011883a 	mov	r8,r18
   43c44:	90817226 	beq	r18,r2,44210 <_dtoa_r+0x15c4>
   43c48:	0580010e 	bge	zero,r22,43c50 <_dtoa_r+0x1004>
   43c4c:	ba000c44 	addi	r8,r23,49
   43c50:	8825883a 	mov	r18,r17
   43c54:	9dc00044 	addi	r23,r19,1
   43c58:	9a000005 	stb	r8,0(r19)
   43c5c:	a023883a 	mov	r17,r20
   43c60:	003f2f06 	br	43920 <__alt_data_end+0xfffd2be0>
   43c64:	880b883a 	mov	r5,r17
   43c68:	8009883a 	mov	r4,r16
   43c6c:	01800284 	movi	r6,10
   43c70:	000f883a 	mov	r7,zero
   43c74:	00463440 	call	46344 <__multadd>
   43c78:	1023883a 	mov	r17,r2
   43c7c:	1029883a 	mov	r20,r2
   43c80:	003f9706 	br	43ae0 <__alt_data_end+0xfffd2da0>
   43c84:	8009883a 	mov	r4,r16
   43c88:	180b883a 	mov	r5,r3
   43c8c:	004631c0 	call	4631c <_Bfree>
   43c90:	00800044 	movi	r2,1
   43c94:	003f7306 	br	43a64 <__alt_data_end+0xfffd2d24>
   43c98:	e009883a 	mov	r4,fp
   43c9c:	a80b883a 	mov	r5,r21
   43ca0:	0046b340 	call	46b34 <__mcmp>
   43ca4:	103ee60e 	bge	r2,zero,43840 <__alt_data_end+0xfffd2b00>
   43ca8:	8009883a 	mov	r4,r16
   43cac:	e00b883a 	mov	r5,fp
   43cb0:	01800284 	movi	r6,10
   43cb4:	000f883a 	mov	r7,zero
   43cb8:	00463440 	call	46344 <__multadd>
   43cbc:	d9000517 	ldw	r4,20(sp)
   43cc0:	d9800b17 	ldw	r6,44(sp)
   43cc4:	1039883a 	mov	fp,r2
   43cc8:	213fffc4 	addi	r4,r4,-1
   43ccc:	d9000515 	stw	r4,20(sp)
   43cd0:	303f2d1e 	bne	r6,zero,43988 <__alt_data_end+0xfffd2c48>
   43cd4:	d9000d17 	ldw	r4,52(sp)
   43cd8:	0101780e 	bge	zero,r4,442bc <_dtoa_r+0x1670>
   43cdc:	d9000615 	stw	r4,24(sp)
   43ce0:	003edb06 	br	43850 <__alt_data_end+0xfffd2b10>
   43ce4:	00800084 	movi	r2,2
   43ce8:	30818e1e 	bne	r6,r2,44324 <_dtoa_r+0x16d8>
   43cec:	d8000b15 	stw	zero,44(sp)
   43cf0:	003f8106 	br	43af8 <__alt_data_end+0xfffd2db8>
   43cf4:	d8800717 	ldw	r2,28(sp)
   43cf8:	003c0306 	br	42d08 <__alt_data_end+0xfffd1fc8>
   43cfc:	d9000317 	ldw	r4,12(sp)
   43d00:	00800084 	movi	r2,2
   43d04:	113ed00e 	bge	r2,r4,43848 <__alt_data_end+0xfffd2b08>
   43d08:	d8c00617 	ldw	r3,24(sp)
   43d0c:	183f901e 	bne	r3,zero,43b50 <__alt_data_end+0xfffd2e10>
   43d10:	a80b883a 	mov	r5,r21
   43d14:	8009883a 	mov	r4,r16
   43d18:	01800144 	movi	r6,5
   43d1c:	000f883a 	mov	r7,zero
   43d20:	00463440 	call	46344 <__multadd>
   43d24:	e009883a 	mov	r4,fp
   43d28:	100b883a 	mov	r5,r2
   43d2c:	102b883a 	mov	r21,r2
   43d30:	0046b340 	call	46b34 <__mcmp>
   43d34:	00bf860e 	bge	zero,r2,43b50 <__alt_data_end+0xfffd2e10>
   43d38:	d9800717 	ldw	r6,28(sp)
   43d3c:	00800c44 	movi	r2,49
   43d40:	30800005 	stb	r2,0(r6)
   43d44:	d8800517 	ldw	r2,20(sp)
   43d48:	35c00044 	addi	r23,r6,1
   43d4c:	10800044 	addi	r2,r2,1
   43d50:	d8800515 	stw	r2,20(sp)
   43d54:	003f8206 	br	43b60 <__alt_data_end+0xfffd2e20>
   43d58:	903e981e 	bne	r18,zero,437bc <__alt_data_end+0xfffd2a7c>
   43d5c:	003f8b06 	br	43b8c <__alt_data_end+0xfffd2e4c>
   43d60:	d9800517 	ldw	r6,20(sp)
   43d64:	d8c00717 	ldw	r3,28(sp)
   43d68:	00800c44 	movi	r2,49
   43d6c:	31800044 	addi	r6,r6,1
   43d70:	d9800515 	stw	r6,20(sp)
   43d74:	18800005 	stb	r2,0(r3)
   43d78:	003ee906 	br	43920 <__alt_data_end+0xfffd2be0>
   43d7c:	dc000317 	ldw	r16,12(sp)
   43d80:	003d6006 	br	43304 <__alt_data_end+0xfffd25c4>
   43d84:	8809883a 	mov	r4,r17
   43d88:	004c78c0 	call	4c78c <__floatsidf>
   43d8c:	a009883a 	mov	r4,r20
   43d90:	a80b883a 	mov	r5,r21
   43d94:	100d883a 	mov	r6,r2
   43d98:	180f883a 	mov	r7,r3
   43d9c:	004b7100 	call	4b710 <__muldf3>
   43da0:	1009883a 	mov	r4,r2
   43da4:	180b883a 	mov	r5,r3
   43da8:	000d883a 	mov	r6,zero
   43dac:	01d00734 	movhi	r7,16412
   43db0:	004a3640 	call	4a364 <__adddf3>
   43db4:	1023883a 	mov	r17,r2
   43db8:	00bf3034 	movhi	r2,64704
   43dbc:	1885883a 	add	r2,r3,r2
   43dc0:	d8800e15 	stw	r2,56(sp)
   43dc4:	a009883a 	mov	r4,r20
   43dc8:	a80b883a 	mov	r5,r21
   43dcc:	000d883a 	mov	r6,zero
   43dd0:	01d00534 	movhi	r7,16404
   43dd4:	004be340 	call	4be34 <__subdf3>
   43dd8:	d9c00e17 	ldw	r7,56(sp)
   43ddc:	1009883a 	mov	r4,r2
   43de0:	180b883a 	mov	r5,r3
   43de4:	880d883a 	mov	r6,r17
   43de8:	102b883a 	mov	r21,r2
   43dec:	1829883a 	mov	r20,r3
   43df0:	004b5500 	call	4b550 <__gedf2>
   43df4:	00807716 	blt	zero,r2,43fd4 <_dtoa_r+0x1388>
   43df8:	d8800e17 	ldw	r2,56(sp)
   43dfc:	a809883a 	mov	r4,r21
   43e00:	a00b883a 	mov	r5,r20
   43e04:	11e0003c 	xorhi	r7,r2,32768
   43e08:	880d883a 	mov	r6,r17
   43e0c:	004b6300 	call	4b630 <__ledf2>
   43e10:	103d6b0e 	bge	r2,zero,433c0 <__alt_data_end+0xfffd2680>
   43e14:	002b883a 	mov	r21,zero
   43e18:	0023883a 	mov	r17,zero
   43e1c:	003f4c06 	br	43b50 <__alt_data_end+0xfffd2e10>
   43e20:	d9800917 	ldw	r6,36(sp)
   43e24:	e00b883a 	mov	r5,fp
   43e28:	8009883a 	mov	r4,r16
   43e2c:	00468ac0 	call	468ac <__pow5mult>
   43e30:	1039883a 	mov	fp,r2
   43e34:	003e2706 	br	436d4 <__alt_data_end+0xfffd2994>
   43e38:	d8000b15 	stw	zero,44(sp)
   43e3c:	003c4906 	br	42f64 <__alt_data_end+0xfffd2224>
   43e40:	d9000917 	ldw	r4,36(sp)
   43e44:	d9800a17 	ldw	r6,40(sp)
   43e48:	dd400915 	stw	r21,36(sp)
   43e4c:	a905c83a 	sub	r2,r21,r4
   43e50:	308d883a 	add	r6,r6,r2
   43e54:	d9800a15 	stw	r6,40(sp)
   43e58:	002b883a 	mov	r21,zero
   43e5c:	003df206 	br	43628 <__alt_data_end+0xfffd28e8>
   43e60:	dc800e15 	stw	r18,56(sp)
   43e64:	982b883a 	mov	r21,r19
   43e68:	04400084 	movi	r17,2
   43e6c:	003c7406 	br	43040 <__alt_data_end+0xfffd2300>
   43e70:	04400044 	movi	r17,1
   43e74:	dc400d15 	stw	r17,52(sp)
   43e78:	dc400615 	stw	r17,24(sp)
   43e7c:	dc402215 	stw	r17,136(sp)
   43e80:	80001115 	stw	zero,68(r16)
   43e84:	000b883a 	mov	r5,zero
   43e88:	003c4a06 	br	42fb4 <__alt_data_end+0xfffd2274>
   43e8c:	3023883a 	mov	r17,r6
   43e90:	003ffb06 	br	43e80 <__alt_data_end+0xfffd3140>
   43e94:	1000021e 	bne	r2,zero,43ea0 <_dtoa_r+0x1254>
   43e98:	4200004c 	andi	r8,r8,1
   43e9c:	403e8f1e 	bne	r8,zero,438dc <__alt_data_end+0xfffd2b9c>
   43ea0:	01000c04 	movi	r4,48
   43ea4:	00000106 	br	43eac <_dtoa_r+0x1260>
   43ea8:	102f883a 	mov	r23,r2
   43eac:	b8bfffc4 	addi	r2,r23,-1
   43eb0:	10c00007 	ldb	r3,0(r2)
   43eb4:	193ffc26 	beq	r3,r4,43ea8 <__alt_data_end+0xfffd3168>
   43eb8:	003e9906 	br	43920 <__alt_data_end+0xfffd2be0>
   43ebc:	d9000517 	ldw	r4,20(sp)
   43ec0:	012fc83a 	sub	r23,zero,r4
   43ec4:	b800ad26 	beq	r23,zero,4417c <_dtoa_r+0x1530>
   43ec8:	b88003cc 	andi	r2,r23,15
   43ecc:	100490fa 	slli	r2,r2,3
   43ed0:	00c00174 	movhi	r3,5
   43ed4:	18dea004 	addi	r3,r3,31360
   43ed8:	1885883a 	add	r2,r3,r2
   43edc:	11800017 	ldw	r6,0(r2)
   43ee0:	11c00117 	ldw	r7,4(r2)
   43ee4:	b82fd13a 	srai	r23,r23,4
   43ee8:	9009883a 	mov	r4,r18
   43eec:	980b883a 	mov	r5,r19
   43ef0:	004b7100 	call	4b710 <__muldf3>
   43ef4:	1029883a 	mov	r20,r2
   43ef8:	182b883a 	mov	r21,r3
   43efc:	b800f426 	beq	r23,zero,442d0 <_dtoa_r+0x1684>
   43f00:	02000174 	movhi	r8,5
   43f04:	421e9604 	addi	r8,r8,31320
   43f08:	8029883a 	mov	r20,r16
   43f0c:	04400084 	movi	r17,2
   43f10:	4021883a 	mov	r16,r8
   43f14:	b980004c 	andi	r6,r23,1
   43f18:	1009883a 	mov	r4,r2
   43f1c:	b82fd07a 	srai	r23,r23,1
   43f20:	180b883a 	mov	r5,r3
   43f24:	30000426 	beq	r6,zero,43f38 <_dtoa_r+0x12ec>
   43f28:	81800017 	ldw	r6,0(r16)
   43f2c:	81c00117 	ldw	r7,4(r16)
   43f30:	8c400044 	addi	r17,r17,1
   43f34:	004b7100 	call	4b710 <__muldf3>
   43f38:	84000204 	addi	r16,r16,8
   43f3c:	b83ff51e 	bne	r23,zero,43f14 <__alt_data_end+0xfffd31d4>
   43f40:	a021883a 	mov	r16,r20
   43f44:	182b883a 	mov	r21,r3
   43f48:	1029883a 	mov	r20,r2
   43f4c:	003c5506 	br	430a4 <__alt_data_end+0xfffd2364>
   43f50:	d9800517 	ldw	r6,20(sp)
   43f54:	d9000717 	ldw	r4,28(sp)
   43f58:	00c00c04 	movi	r3,48
   43f5c:	31800044 	addi	r6,r6,1
   43f60:	d9800515 	stw	r6,20(sp)
   43f64:	20c00005 	stb	r3,0(r4)
   43f68:	02000c44 	movi	r8,49
   43f6c:	003da206 	br	435f8 <__alt_data_end+0xfffd28b8>
   43f70:	89400117 	ldw	r5,4(r17)
   43f74:	8009883a 	mov	r4,r16
   43f78:	00462740 	call	46274 <_Balloc>
   43f7c:	89800417 	ldw	r6,16(r17)
   43f80:	11000304 	addi	r4,r2,12
   43f84:	89400304 	addi	r5,r17,12
   43f88:	31800084 	addi	r6,r6,2
   43f8c:	318d883a 	add	r6,r6,r6
   43f90:	318d883a 	add	r6,r6,r6
   43f94:	1027883a 	mov	r19,r2
   43f98:	0045ebc0 	call	45ebc <memcpy>
   43f9c:	8009883a 	mov	r4,r16
   43fa0:	980b883a 	mov	r5,r19
   43fa4:	01800044 	movi	r6,1
   43fa8:	00469ec0 	call	469ec <__lshift>
   43fac:	1029883a 	mov	r20,r2
   43fb0:	003e8606 	br	439cc <__alt_data_end+0xfffd2c8c>
   43fb4:	00800e44 	movi	r2,57
   43fb8:	90809526 	beq	r18,r2,44210 <_dtoa_r+0x15c4>
   43fbc:	92000044 	addi	r8,r18,1
   43fc0:	003f2306 	br	43c50 <__alt_data_end+0xfffd2f10>
   43fc4:	9011883a 	mov	r8,r18
   43fc8:	8825883a 	mov	r18,r17
   43fcc:	a023883a 	mov	r17,r20
   43fd0:	003e3706 	br	438b0 <__alt_data_end+0xfffd2b70>
   43fd4:	002b883a 	mov	r21,zero
   43fd8:	0023883a 	mov	r17,zero
   43fdc:	003f5606 	br	43d38 <__alt_data_end+0xfffd2ff8>
   43fe0:	51bfffc4 	addi	r6,r10,-1
   43fe4:	300490fa 	slli	r2,r6,3
   43fe8:	00c00174 	movhi	r3,5
   43fec:	18dea004 	addi	r3,r3,31360
   43ff0:	1885883a 	add	r2,r3,r2
   43ff4:	d9c00e17 	ldw	r7,56(sp)
   43ff8:	11000017 	ldw	r4,0(r2)
   43ffc:	11400117 	ldw	r5,4(r2)
   44000:	d8800717 	ldw	r2,28(sp)
   44004:	d9801015 	stw	r6,64(sp)
   44008:	880d883a 	mov	r6,r17
   4400c:	da801615 	stw	r10,88(sp)
   44010:	15c00044 	addi	r23,r2,1
   44014:	004b7100 	call	4b710 <__muldf3>
   44018:	a80b883a 	mov	r5,r21
   4401c:	a009883a 	mov	r4,r20
   44020:	d8c01115 	stw	r3,68(sp)
   44024:	d8800e15 	stw	r2,56(sp)
   44028:	004c7040 	call	4c704 <__fixdfsi>
   4402c:	1009883a 	mov	r4,r2
   44030:	1023883a 	mov	r17,r2
   44034:	004c78c0 	call	4c78c <__floatsidf>
   44038:	a009883a 	mov	r4,r20
   4403c:	a80b883a 	mov	r5,r21
   44040:	100d883a 	mov	r6,r2
   44044:	180f883a 	mov	r7,r3
   44048:	004be340 	call	4be34 <__subdf3>
   4404c:	1813883a 	mov	r9,r3
   44050:	d8c00717 	ldw	r3,28(sp)
   44054:	8c400c04 	addi	r17,r17,48
   44058:	1011883a 	mov	r8,r2
   4405c:	1c400005 	stb	r17,0(r3)
   44060:	da801617 	ldw	r10,88(sp)
   44064:	00800044 	movi	r2,1
   44068:	50802326 	beq	r10,r2,440f8 <_dtoa_r+0x14ac>
   4406c:	d8800717 	ldw	r2,28(sp)
   44070:	b82b883a 	mov	r21,r23
   44074:	dc001315 	stw	r16,76(sp)
   44078:	12a9883a 	add	r20,r2,r10
   4407c:	4807883a 	mov	r3,r9
   44080:	4005883a 	mov	r2,r8
   44084:	dc801415 	stw	r18,80(sp)
   44088:	000d883a 	mov	r6,zero
   4408c:	01d00934 	movhi	r7,16420
   44090:	1009883a 	mov	r4,r2
   44094:	180b883a 	mov	r5,r3
   44098:	004b7100 	call	4b710 <__muldf3>
   4409c:	180b883a 	mov	r5,r3
   440a0:	1009883a 	mov	r4,r2
   440a4:	1821883a 	mov	r16,r3
   440a8:	1025883a 	mov	r18,r2
   440ac:	004c7040 	call	4c704 <__fixdfsi>
   440b0:	1009883a 	mov	r4,r2
   440b4:	1023883a 	mov	r17,r2
   440b8:	004c78c0 	call	4c78c <__floatsidf>
   440bc:	9009883a 	mov	r4,r18
   440c0:	800b883a 	mov	r5,r16
   440c4:	100d883a 	mov	r6,r2
   440c8:	180f883a 	mov	r7,r3
   440cc:	8c400c04 	addi	r17,r17,48
   440d0:	004be340 	call	4be34 <__subdf3>
   440d4:	ad400044 	addi	r21,r21,1
   440d8:	ac7fffc5 	stb	r17,-1(r21)
   440dc:	ad3fea1e 	bne	r21,r20,44088 <__alt_data_end+0xfffd3348>
   440e0:	1813883a 	mov	r9,r3
   440e4:	d8c01017 	ldw	r3,64(sp)
   440e8:	dc001317 	ldw	r16,76(sp)
   440ec:	dc801417 	ldw	r18,80(sp)
   440f0:	1011883a 	mov	r8,r2
   440f4:	b8ef883a 	add	r23,r23,r3
   440f8:	d9000e17 	ldw	r4,56(sp)
   440fc:	d9401117 	ldw	r5,68(sp)
   44100:	000d883a 	mov	r6,zero
   44104:	01cff834 	movhi	r7,16352
   44108:	da001715 	stw	r8,92(sp)
   4410c:	da401515 	stw	r9,84(sp)
   44110:	004a3640 	call	4a364 <__adddf3>
   44114:	da001717 	ldw	r8,92(sp)
   44118:	da401517 	ldw	r9,84(sp)
   4411c:	1009883a 	mov	r4,r2
   44120:	400d883a 	mov	r6,r8
   44124:	480f883a 	mov	r7,r9
   44128:	180b883a 	mov	r5,r3
   4412c:	004b6300 	call	4b630 <__ledf2>
   44130:	da001717 	ldw	r8,92(sp)
   44134:	da401517 	ldw	r9,84(sp)
   44138:	10003b0e 	bge	r2,zero,44228 <_dtoa_r+0x15dc>
   4413c:	d9001217 	ldw	r4,72(sp)
   44140:	bd7fffc3 	ldbu	r21,-1(r23)
   44144:	d9000515 	stw	r4,20(sp)
   44148:	003d1c06 	br	435bc <__alt_data_end+0xfffd287c>
   4414c:	d8c00817 	ldw	r3,32(sp)
   44150:	18a9c83a 	sub	r20,r3,r2
   44154:	0005883a 	mov	r2,zero
   44158:	003d3706 	br	43638 <__alt_data_end+0xfffd28f8>
   4415c:	00800044 	movi	r2,1
   44160:	003dd006 	br	438a4 <__alt_data_end+0xfffd2b64>
   44164:	d8c00217 	ldw	r3,8(sp)
   44168:	00800d84 	movi	r2,54
   4416c:	dd400917 	ldw	r21,36(sp)
   44170:	10c5c83a 	sub	r2,r2,r3
   44174:	dd000817 	ldw	r20,32(sp)
   44178:	003d2f06 	br	43638 <__alt_data_end+0xfffd28f8>
   4417c:	9029883a 	mov	r20,r18
   44180:	982b883a 	mov	r21,r19
   44184:	04400084 	movi	r17,2
   44188:	003bc606 	br	430a4 <__alt_data_end+0xfffd2364>
   4418c:	d8800617 	ldw	r2,24(sp)
   44190:	103efc26 	beq	r2,zero,43d84 <__alt_data_end+0xfffd3044>
   44194:	d8c00d17 	ldw	r3,52(sp)
   44198:	00fc890e 	bge	zero,r3,433c0 <__alt_data_end+0xfffd2680>
   4419c:	a80b883a 	mov	r5,r21
   441a0:	a009883a 	mov	r4,r20
   441a4:	000d883a 	mov	r6,zero
   441a8:	01d00934 	movhi	r7,16420
   441ac:	004b7100 	call	4b710 <__muldf3>
   441b0:	89000044 	addi	r4,r17,1
   441b4:	1029883a 	mov	r20,r2
   441b8:	182b883a 	mov	r21,r3
   441bc:	004c78c0 	call	4c78c <__floatsidf>
   441c0:	a009883a 	mov	r4,r20
   441c4:	a80b883a 	mov	r5,r21
   441c8:	100d883a 	mov	r6,r2
   441cc:	180f883a 	mov	r7,r3
   441d0:	004b7100 	call	4b710 <__muldf3>
   441d4:	1009883a 	mov	r4,r2
   441d8:	180b883a 	mov	r5,r3
   441dc:	000d883a 	mov	r6,zero
   441e0:	01d00734 	movhi	r7,16412
   441e4:	004a3640 	call	4a364 <__adddf3>
   441e8:	d9000517 	ldw	r4,20(sp)
   441ec:	1023883a 	mov	r17,r2
   441f0:	00bf3034 	movhi	r2,64704
   441f4:	213fffc4 	addi	r4,r4,-1
   441f8:	1885883a 	add	r2,r3,r2
   441fc:	d9001215 	stw	r4,72(sp)
   44200:	d8800e15 	stw	r2,56(sp)
   44204:	da800d17 	ldw	r10,52(sp)
   44208:	003bc306 	br	43118 <__alt_data_end+0xfffd23d8>
   4420c:	b039883a 	mov	fp,r22
   44210:	01000e44 	movi	r4,57
   44214:	8825883a 	mov	r18,r17
   44218:	9dc00044 	addi	r23,r19,1
   4421c:	99000005 	stb	r4,0(r19)
   44220:	a023883a 	mov	r17,r20
   44224:	003dae06 	br	438e0 <__alt_data_end+0xfffd2ba0>
   44228:	d9800e17 	ldw	r6,56(sp)
   4422c:	d9c01117 	ldw	r7,68(sp)
   44230:	0009883a 	mov	r4,zero
   44234:	014ff834 	movhi	r5,16352
   44238:	da001715 	stw	r8,92(sp)
   4423c:	da401515 	stw	r9,84(sp)
   44240:	004be340 	call	4be34 <__subdf3>
   44244:	da001717 	ldw	r8,92(sp)
   44248:	da401517 	ldw	r9,84(sp)
   4424c:	1009883a 	mov	r4,r2
   44250:	180b883a 	mov	r5,r3
   44254:	400d883a 	mov	r6,r8
   44258:	480f883a 	mov	r7,r9
   4425c:	004b5500 	call	4b550 <__gedf2>
   44260:	00bc570e 	bge	zero,r2,433c0 <__alt_data_end+0xfffd2680>
   44264:	01000c04 	movi	r4,48
   44268:	00000106 	br	44270 <_dtoa_r+0x1624>
   4426c:	102f883a 	mov	r23,r2
   44270:	b8bfffc4 	addi	r2,r23,-1
   44274:	10c00007 	ldb	r3,0(r2)
   44278:	193ffc26 	beq	r3,r4,4426c <__alt_data_end+0xfffd352c>
   4427c:	d9801217 	ldw	r6,72(sp)
   44280:	d9800515 	stw	r6,20(sp)
   44284:	003c1f06 	br	43304 <__alt_data_end+0xfffd25c4>
   44288:	d8801217 	ldw	r2,72(sp)
   4428c:	dc001117 	ldw	r16,68(sp)
   44290:	d8800515 	stw	r2,20(sp)
   44294:	003cc906 	br	435bc <__alt_data_end+0xfffd287c>
   44298:	dd801317 	ldw	r22,76(sp)
   4429c:	dc001117 	ldw	r16,68(sp)
   442a0:	dcc01417 	ldw	r19,80(sp)
   442a4:	dc801017 	ldw	r18,64(sp)
   442a8:	003c4506 	br	433c0 <__alt_data_end+0xfffd2680>
   442ac:	103e5d1e 	bne	r2,zero,43c24 <__alt_data_end+0xfffd2ee4>
   442b0:	4080004c 	andi	r2,r8,1
   442b4:	103e5b26 	beq	r2,zero,43c24 <__alt_data_end+0xfffd2ee4>
   442b8:	003e5706 	br	43c18 <__alt_data_end+0xfffd2ed8>
   442bc:	d8c00317 	ldw	r3,12(sp)
   442c0:	00800084 	movi	r2,2
   442c4:	10c00a16 	blt	r2,r3,442f0 <_dtoa_r+0x16a4>
   442c8:	d9000d17 	ldw	r4,52(sp)
   442cc:	003e8306 	br	43cdc <__alt_data_end+0xfffd2f9c>
   442d0:	04400084 	movi	r17,2
   442d4:	003b7306 	br	430a4 <__alt_data_end+0xfffd2364>
   442d8:	d9801217 	ldw	r6,72(sp)
   442dc:	d9800515 	stw	r6,20(sp)
   442e0:	003cb606 	br	435bc <__alt_data_end+0xfffd287c>
   442e4:	d9001217 	ldw	r4,72(sp)
   442e8:	d9000515 	stw	r4,20(sp)
   442ec:	003c0506 	br	43304 <__alt_data_end+0xfffd25c4>
   442f0:	d9800d17 	ldw	r6,52(sp)
   442f4:	d9800615 	stw	r6,24(sp)
   442f8:	003e8306 	br	43d08 <__alt_data_end+0xfffd2fc8>
   442fc:	d9800317 	ldw	r6,12(sp)
   44300:	00800084 	movi	r2,2
   44304:	11800216 	blt	r2,r6,44310 <_dtoa_r+0x16c4>
   44308:	d8800d17 	ldw	r2,52(sp)
   4430c:	003da606 	br	439a8 <__alt_data_end+0xfffd2c68>
   44310:	d8800d17 	ldw	r2,52(sp)
   44314:	d8800615 	stw	r2,24(sp)
   44318:	003e7b06 	br	43d08 <__alt_data_end+0xfffd2fc8>
   4431c:	05000044 	movi	r20,1
   44320:	003b0506 	br	42f38 <__alt_data_end+0xfffd21f8>
   44324:	8009883a 	mov	r4,r16
   44328:	80001115 	stw	zero,68(r16)
   4432c:	000b883a 	mov	r5,zero
   44330:	00462740 	call	46274 <_Balloc>
   44334:	d8800715 	stw	r2,28(sp)
   44338:	d8c00717 	ldw	r3,28(sp)
   4433c:	00bfffc4 	movi	r2,-1
   44340:	01000044 	movi	r4,1
   44344:	d8800615 	stw	r2,24(sp)
   44348:	80c01015 	stw	r3,64(r16)
   4434c:	d9000b15 	stw	r4,44(sp)
   44350:	d8002215 	stw	zero,136(sp)
   44354:	d8800d15 	stw	r2,52(sp)
   44358:	003c1906 	br	433c0 <__alt_data_end+0xfffd2680>
   4435c:	193d2926 	beq	r3,r4,43804 <__alt_data_end+0xfffd2ac4>
   44360:	00c00f04 	movi	r3,60
   44364:	1885c83a 	sub	r2,r3,r2
   44368:	003d7b06 	br	43958 <__alt_data_end+0xfffd2c18>
   4436c:	000b883a 	mov	r5,zero
   44370:	003b1006 	br	42fb4 <__alt_data_end+0xfffd2274>

00044374 <_fflush_r>:
   44374:	defffb04 	addi	sp,sp,-20
   44378:	dcc00315 	stw	r19,12(sp)
   4437c:	dc000015 	stw	r16,0(sp)
   44380:	dfc00415 	stw	ra,16(sp)
   44384:	dc800215 	stw	r18,8(sp)
   44388:	dc400115 	stw	r17,4(sp)
   4438c:	2027883a 	mov	r19,r4
   44390:	2821883a 	mov	r16,r5
   44394:	20000226 	beq	r4,zero,443a0 <_fflush_r+0x2c>
   44398:	20800e17 	ldw	r2,56(r4)
   4439c:	10005326 	beq	r2,zero,444ec <_fflush_r+0x178>
   443a0:	8080030b 	ldhu	r2,12(r16)
   443a4:	10ffffcc 	andi	r3,r2,65535
   443a8:	18e0001c 	xori	r3,r3,32768
   443ac:	18e00004 	addi	r3,r3,-32768
   443b0:	18002c26 	beq	r3,zero,44464 <_fflush_r+0xf0>
   443b4:	10c0020c 	andi	r3,r2,8
   443b8:	1800321e 	bne	r3,zero,44484 <_fflush_r+0x110>
   443bc:	80c00117 	ldw	r3,4(r16)
   443c0:	10820014 	ori	r2,r2,2048
   443c4:	8080030d 	sth	r2,12(r16)
   443c8:	00c0570e 	bge	zero,r3,44528 <_fflush_r+0x1b4>
   443cc:	82000a17 	ldw	r8,40(r16)
   443d0:	40002426 	beq	r8,zero,44464 <_fflush_r+0xf0>
   443d4:	9c400017 	ldw	r17,0(r19)
   443d8:	10c4000c 	andi	r3,r2,4096
   443dc:	98000015 	stw	zero,0(r19)
   443e0:	18004626 	beq	r3,zero,444fc <_fflush_r+0x188>
   443e4:	81801417 	ldw	r6,80(r16)
   443e8:	10c0010c 	andi	r3,r2,4
   443ec:	18000626 	beq	r3,zero,44408 <_fflush_r+0x94>
   443f0:	80c00117 	ldw	r3,4(r16)
   443f4:	80800c17 	ldw	r2,48(r16)
   443f8:	30cdc83a 	sub	r6,r6,r3
   443fc:	10000226 	beq	r2,zero,44408 <_fflush_r+0x94>
   44400:	80800f17 	ldw	r2,60(r16)
   44404:	308dc83a 	sub	r6,r6,r2
   44408:	81400717 	ldw	r5,28(r16)
   4440c:	9809883a 	mov	r4,r19
   44410:	000f883a 	mov	r7,zero
   44414:	403ee83a 	callr	r8
   44418:	00ffffc4 	movi	r3,-1
   4441c:	10c04526 	beq	r2,r3,44534 <_fflush_r+0x1c0>
   44420:	80c0030b 	ldhu	r3,12(r16)
   44424:	81000417 	ldw	r4,16(r16)
   44428:	80000115 	stw	zero,4(r16)
   4442c:	197dffcc 	andi	r5,r3,63487
   44430:	8140030d 	sth	r5,12(r16)
   44434:	81000015 	stw	r4,0(r16)
   44438:	18c4000c 	andi	r3,r3,4096
   4443c:	18000126 	beq	r3,zero,44444 <_fflush_r+0xd0>
   44440:	80801415 	stw	r2,80(r16)
   44444:	81400c17 	ldw	r5,48(r16)
   44448:	9c400015 	stw	r17,0(r19)
   4444c:	28000526 	beq	r5,zero,44464 <_fflush_r+0xf0>
   44450:	80801004 	addi	r2,r16,64
   44454:	28800226 	beq	r5,r2,44460 <_fflush_r+0xec>
   44458:	9809883a 	mov	r4,r19
   4445c:	0044a900 	call	44a90 <_free_r>
   44460:	80000c15 	stw	zero,48(r16)
   44464:	0005883a 	mov	r2,zero
   44468:	dfc00417 	ldw	ra,16(sp)
   4446c:	dcc00317 	ldw	r19,12(sp)
   44470:	dc800217 	ldw	r18,8(sp)
   44474:	dc400117 	ldw	r17,4(sp)
   44478:	dc000017 	ldw	r16,0(sp)
   4447c:	dec00504 	addi	sp,sp,20
   44480:	f800283a 	ret
   44484:	84800417 	ldw	r18,16(r16)
   44488:	903ff626 	beq	r18,zero,44464 <__alt_data_end+0xfffd3724>
   4448c:	84400017 	ldw	r17,0(r16)
   44490:	108000cc 	andi	r2,r2,3
   44494:	84800015 	stw	r18,0(r16)
   44498:	8ca3c83a 	sub	r17,r17,r18
   4449c:	10001526 	beq	r2,zero,444f4 <_fflush_r+0x180>
   444a0:	0005883a 	mov	r2,zero
   444a4:	80800215 	stw	r2,8(r16)
   444a8:	04400316 	blt	zero,r17,444b8 <_fflush_r+0x144>
   444ac:	003fed06 	br	44464 <__alt_data_end+0xfffd3724>
   444b0:	90a5883a 	add	r18,r18,r2
   444b4:	047feb0e 	bge	zero,r17,44464 <__alt_data_end+0xfffd3724>
   444b8:	80800917 	ldw	r2,36(r16)
   444bc:	81400717 	ldw	r5,28(r16)
   444c0:	880f883a 	mov	r7,r17
   444c4:	900d883a 	mov	r6,r18
   444c8:	9809883a 	mov	r4,r19
   444cc:	103ee83a 	callr	r2
   444d0:	88a3c83a 	sub	r17,r17,r2
   444d4:	00bff616 	blt	zero,r2,444b0 <__alt_data_end+0xfffd3770>
   444d8:	80c0030b 	ldhu	r3,12(r16)
   444dc:	00bfffc4 	movi	r2,-1
   444e0:	18c01014 	ori	r3,r3,64
   444e4:	80c0030d 	sth	r3,12(r16)
   444e8:	003fdf06 	br	44468 <__alt_data_end+0xfffd3728>
   444ec:	004491c0 	call	4491c <__sinit>
   444f0:	003fab06 	br	443a0 <__alt_data_end+0xfffd3660>
   444f4:	80800517 	ldw	r2,20(r16)
   444f8:	003fea06 	br	444a4 <__alt_data_end+0xfffd3764>
   444fc:	81400717 	ldw	r5,28(r16)
   44500:	000d883a 	mov	r6,zero
   44504:	9809883a 	mov	r4,r19
   44508:	01c00044 	movi	r7,1
   4450c:	403ee83a 	callr	r8
   44510:	100d883a 	mov	r6,r2
   44514:	00bfffc4 	movi	r2,-1
   44518:	30801326 	beq	r6,r2,44568 <_fflush_r+0x1f4>
   4451c:	8080030b 	ldhu	r2,12(r16)
   44520:	82000a17 	ldw	r8,40(r16)
   44524:	003fb006 	br	443e8 <__alt_data_end+0xfffd36a8>
   44528:	80c00f17 	ldw	r3,60(r16)
   4452c:	00ffa716 	blt	zero,r3,443cc <__alt_data_end+0xfffd368c>
   44530:	003fcc06 	br	44464 <__alt_data_end+0xfffd3724>
   44534:	98c00017 	ldw	r3,0(r19)
   44538:	183fb926 	beq	r3,zero,44420 <__alt_data_end+0xfffd36e0>
   4453c:	01000744 	movi	r4,29
   44540:	19000226 	beq	r3,r4,4454c <_fflush_r+0x1d8>
   44544:	01000584 	movi	r4,22
   44548:	1900101e 	bne	r3,r4,4458c <_fflush_r+0x218>
   4454c:	8080030b 	ldhu	r2,12(r16)
   44550:	80c00417 	ldw	r3,16(r16)
   44554:	80000115 	stw	zero,4(r16)
   44558:	10bdffcc 	andi	r2,r2,63487
   4455c:	8080030d 	sth	r2,12(r16)
   44560:	80c00015 	stw	r3,0(r16)
   44564:	003fb706 	br	44444 <__alt_data_end+0xfffd3704>
   44568:	98800017 	ldw	r2,0(r19)
   4456c:	103feb26 	beq	r2,zero,4451c <__alt_data_end+0xfffd37dc>
   44570:	00c00744 	movi	r3,29
   44574:	10c00226 	beq	r2,r3,44580 <_fflush_r+0x20c>
   44578:	00c00584 	movi	r3,22
   4457c:	10ffd61e 	bne	r2,r3,444d8 <__alt_data_end+0xfffd3798>
   44580:	9c400015 	stw	r17,0(r19)
   44584:	0005883a 	mov	r2,zero
   44588:	003fb706 	br	44468 <__alt_data_end+0xfffd3728>
   4458c:	80c0030b 	ldhu	r3,12(r16)
   44590:	18c01014 	ori	r3,r3,64
   44594:	80c0030d 	sth	r3,12(r16)
   44598:	003fb306 	br	44468 <__alt_data_end+0xfffd3728>

0004459c <fflush>:
   4459c:	20000526 	beq	r4,zero,445b4 <fflush+0x18>
   445a0:	008001b4 	movhi	r2,6
   445a4:	10a62104 	addi	r2,r2,-26492
   445a8:	200b883a 	mov	r5,r4
   445ac:	11000017 	ldw	r4,0(r2)
   445b0:	00443741 	jmpi	44374 <_fflush_r>
   445b4:	008001b4 	movhi	r2,6
   445b8:	10a62004 	addi	r2,r2,-26496
   445bc:	11000017 	ldw	r4,0(r2)
   445c0:	01400134 	movhi	r5,4
   445c4:	2950dd04 	addi	r5,r5,17268
   445c8:	00452dc1 	jmpi	452dc <_fwalk_reent>

000445cc <__fp_lock>:
   445cc:	0005883a 	mov	r2,zero
   445d0:	f800283a 	ret

000445d4 <__fp_unlock>:
   445d4:	0005883a 	mov	r2,zero
   445d8:	f800283a 	ret

000445dc <_cleanup_r>:
   445dc:	01400174 	movhi	r5,5
   445e0:	29645404 	addi	r5,r5,-28336
   445e4:	00452241 	jmpi	45224 <_fwalk>

000445e8 <__sinit.part.1>:
   445e8:	defff604 	addi	sp,sp,-40
   445ec:	00c00134 	movhi	r3,4
   445f0:	dfc00915 	stw	ra,36(sp)
   445f4:	df000815 	stw	fp,32(sp)
   445f8:	ddc00715 	stw	r23,28(sp)
   445fc:	dd800615 	stw	r22,24(sp)
   44600:	dd400515 	stw	r21,20(sp)
   44604:	dd000415 	stw	r20,16(sp)
   44608:	dcc00315 	stw	r19,12(sp)
   4460c:	dc800215 	stw	r18,8(sp)
   44610:	dc400115 	stw	r17,4(sp)
   44614:	dc000015 	stw	r16,0(sp)
   44618:	18d17704 	addi	r3,r3,17884
   4461c:	24000117 	ldw	r16,4(r4)
   44620:	20c00f15 	stw	r3,60(r4)
   44624:	07000044 	movi	fp,1
   44628:	00c000c4 	movi	r3,3
   4462c:	2080bb04 	addi	r2,r4,748
   44630:	20c0b915 	stw	r3,740(r4)
   44634:	27000e15 	stw	fp,56(r4)
   44638:	2080ba15 	stw	r2,744(r4)
   4463c:	2000b815 	stw	zero,736(r4)
   44640:	05c00204 	movi	r23,8
   44644:	00800104 	movi	r2,4
   44648:	2025883a 	mov	r18,r4
   4464c:	b80d883a 	mov	r6,r23
   44650:	81001704 	addi	r4,r16,92
   44654:	000b883a 	mov	r5,zero
   44658:	80000015 	stw	zero,0(r16)
   4465c:	80000115 	stw	zero,4(r16)
   44660:	80000215 	stw	zero,8(r16)
   44664:	8080030d 	sth	r2,12(r16)
   44668:	80001915 	stw	zero,100(r16)
   4466c:	8000038d 	sth	zero,14(r16)
   44670:	80000415 	stw	zero,16(r16)
   44674:	80000515 	stw	zero,20(r16)
   44678:	80000615 	stw	zero,24(r16)
   4467c:	00461500 	call	46150 <memset>
   44680:	05800134 	movhi	r22,4
   44684:	94400217 	ldw	r17,8(r18)
   44688:	05400134 	movhi	r21,4
   4468c:	05000134 	movhi	r20,4
   44690:	04c00134 	movhi	r19,4
   44694:	b59e1a04 	addi	r22,r22,30824
   44698:	ad5e3104 	addi	r21,r21,30916
   4469c:	a51e5004 	addi	r20,r20,31040
   446a0:	9cde6704 	addi	r19,r19,31132
   446a4:	85800815 	stw	r22,32(r16)
   446a8:	85400915 	stw	r21,36(r16)
   446ac:	85000a15 	stw	r20,40(r16)
   446b0:	84c00b15 	stw	r19,44(r16)
   446b4:	84000715 	stw	r16,28(r16)
   446b8:	00800284 	movi	r2,10
   446bc:	89001704 	addi	r4,r17,92
   446c0:	b80d883a 	mov	r6,r23
   446c4:	000b883a 	mov	r5,zero
   446c8:	88000015 	stw	zero,0(r17)
   446cc:	88000115 	stw	zero,4(r17)
   446d0:	88000215 	stw	zero,8(r17)
   446d4:	8880030d 	sth	r2,12(r17)
   446d8:	88001915 	stw	zero,100(r17)
   446dc:	8f00038d 	sth	fp,14(r17)
   446e0:	88000415 	stw	zero,16(r17)
   446e4:	88000515 	stw	zero,20(r17)
   446e8:	88000615 	stw	zero,24(r17)
   446ec:	00461500 	call	46150 <memset>
   446f0:	94000317 	ldw	r16,12(r18)
   446f4:	00800484 	movi	r2,18
   446f8:	8c400715 	stw	r17,28(r17)
   446fc:	8d800815 	stw	r22,32(r17)
   44700:	8d400915 	stw	r21,36(r17)
   44704:	8d000a15 	stw	r20,40(r17)
   44708:	8cc00b15 	stw	r19,44(r17)
   4470c:	8080030d 	sth	r2,12(r16)
   44710:	00800084 	movi	r2,2
   44714:	80000015 	stw	zero,0(r16)
   44718:	80000115 	stw	zero,4(r16)
   4471c:	80000215 	stw	zero,8(r16)
   44720:	80001915 	stw	zero,100(r16)
   44724:	8080038d 	sth	r2,14(r16)
   44728:	80000415 	stw	zero,16(r16)
   4472c:	80000515 	stw	zero,20(r16)
   44730:	80000615 	stw	zero,24(r16)
   44734:	81001704 	addi	r4,r16,92
   44738:	000b883a 	mov	r5,zero
   4473c:	b80d883a 	mov	r6,r23
   44740:	00461500 	call	46150 <memset>
   44744:	84000715 	stw	r16,28(r16)
   44748:	85800815 	stw	r22,32(r16)
   4474c:	85400915 	stw	r21,36(r16)
   44750:	85000a15 	stw	r20,40(r16)
   44754:	84c00b15 	stw	r19,44(r16)
   44758:	dfc00917 	ldw	ra,36(sp)
   4475c:	df000817 	ldw	fp,32(sp)
   44760:	ddc00717 	ldw	r23,28(sp)
   44764:	dd800617 	ldw	r22,24(sp)
   44768:	dd400517 	ldw	r21,20(sp)
   4476c:	dd000417 	ldw	r20,16(sp)
   44770:	dcc00317 	ldw	r19,12(sp)
   44774:	dc800217 	ldw	r18,8(sp)
   44778:	dc400117 	ldw	r17,4(sp)
   4477c:	dc000017 	ldw	r16,0(sp)
   44780:	dec00a04 	addi	sp,sp,40
   44784:	f800283a 	ret

00044788 <__sfmoreglue>:
   44788:	defffc04 	addi	sp,sp,-16
   4478c:	dc400115 	stw	r17,4(sp)
   44790:	2c401a24 	muli	r17,r5,104
   44794:	dc800215 	stw	r18,8(sp)
   44798:	2825883a 	mov	r18,r5
   4479c:	89400304 	addi	r5,r17,12
   447a0:	dc000015 	stw	r16,0(sp)
   447a4:	dfc00315 	stw	ra,12(sp)
   447a8:	004562c0 	call	4562c <_malloc_r>
   447ac:	1021883a 	mov	r16,r2
   447b0:	10000726 	beq	r2,zero,447d0 <__sfmoreglue+0x48>
   447b4:	11000304 	addi	r4,r2,12
   447b8:	10000015 	stw	zero,0(r2)
   447bc:	14800115 	stw	r18,4(r2)
   447c0:	11000215 	stw	r4,8(r2)
   447c4:	000b883a 	mov	r5,zero
   447c8:	880d883a 	mov	r6,r17
   447cc:	00461500 	call	46150 <memset>
   447d0:	8005883a 	mov	r2,r16
   447d4:	dfc00317 	ldw	ra,12(sp)
   447d8:	dc800217 	ldw	r18,8(sp)
   447dc:	dc400117 	ldw	r17,4(sp)
   447e0:	dc000017 	ldw	r16,0(sp)
   447e4:	dec00404 	addi	sp,sp,16
   447e8:	f800283a 	ret

000447ec <__sfp>:
   447ec:	008001b4 	movhi	r2,6
   447f0:	defffb04 	addi	sp,sp,-20
   447f4:	10a62004 	addi	r2,r2,-26496
   447f8:	dc800215 	stw	r18,8(sp)
   447fc:	14800017 	ldw	r18,0(r2)
   44800:	dcc00315 	stw	r19,12(sp)
   44804:	dfc00415 	stw	ra,16(sp)
   44808:	90800e17 	ldw	r2,56(r18)
   4480c:	dc400115 	stw	r17,4(sp)
   44810:	dc000015 	stw	r16,0(sp)
   44814:	2027883a 	mov	r19,r4
   44818:	1000021e 	bne	r2,zero,44824 <__sfp+0x38>
   4481c:	9009883a 	mov	r4,r18
   44820:	00445e80 	call	445e8 <__sinit.part.1>
   44824:	9480b804 	addi	r18,r18,736
   44828:	047fffc4 	movi	r17,-1
   4482c:	91400117 	ldw	r5,4(r18)
   44830:	94000217 	ldw	r16,8(r18)
   44834:	297fffc4 	addi	r5,r5,-1
   44838:	28000a16 	blt	r5,zero,44864 <__sfp+0x78>
   4483c:	8080030f 	ldh	r2,12(r16)
   44840:	10000c26 	beq	r2,zero,44874 <__sfp+0x88>
   44844:	80c01d04 	addi	r3,r16,116
   44848:	00000206 	br	44854 <__sfp+0x68>
   4484c:	18bfe60f 	ldh	r2,-104(r3)
   44850:	10000826 	beq	r2,zero,44874 <__sfp+0x88>
   44854:	297fffc4 	addi	r5,r5,-1
   44858:	1c3ffd04 	addi	r16,r3,-12
   4485c:	18c01a04 	addi	r3,r3,104
   44860:	2c7ffa1e 	bne	r5,r17,4484c <__alt_data_end+0xfffd3b0c>
   44864:	90800017 	ldw	r2,0(r18)
   44868:	10001d26 	beq	r2,zero,448e0 <__sfp+0xf4>
   4486c:	1025883a 	mov	r18,r2
   44870:	003fee06 	br	4482c <__alt_data_end+0xfffd3aec>
   44874:	00bfffc4 	movi	r2,-1
   44878:	8080038d 	sth	r2,14(r16)
   4487c:	00800044 	movi	r2,1
   44880:	8080030d 	sth	r2,12(r16)
   44884:	80001915 	stw	zero,100(r16)
   44888:	80000015 	stw	zero,0(r16)
   4488c:	80000215 	stw	zero,8(r16)
   44890:	80000115 	stw	zero,4(r16)
   44894:	80000415 	stw	zero,16(r16)
   44898:	80000515 	stw	zero,20(r16)
   4489c:	80000615 	stw	zero,24(r16)
   448a0:	81001704 	addi	r4,r16,92
   448a4:	000b883a 	mov	r5,zero
   448a8:	01800204 	movi	r6,8
   448ac:	00461500 	call	46150 <memset>
   448b0:	8005883a 	mov	r2,r16
   448b4:	80000c15 	stw	zero,48(r16)
   448b8:	80000d15 	stw	zero,52(r16)
   448bc:	80001115 	stw	zero,68(r16)
   448c0:	80001215 	stw	zero,72(r16)
   448c4:	dfc00417 	ldw	ra,16(sp)
   448c8:	dcc00317 	ldw	r19,12(sp)
   448cc:	dc800217 	ldw	r18,8(sp)
   448d0:	dc400117 	ldw	r17,4(sp)
   448d4:	dc000017 	ldw	r16,0(sp)
   448d8:	dec00504 	addi	sp,sp,20
   448dc:	f800283a 	ret
   448e0:	9809883a 	mov	r4,r19
   448e4:	01400104 	movi	r5,4
   448e8:	00447880 	call	44788 <__sfmoreglue>
   448ec:	90800015 	stw	r2,0(r18)
   448f0:	103fde1e 	bne	r2,zero,4486c <__alt_data_end+0xfffd3b2c>
   448f4:	00800304 	movi	r2,12
   448f8:	98800015 	stw	r2,0(r19)
   448fc:	0005883a 	mov	r2,zero
   44900:	003ff006 	br	448c4 <__alt_data_end+0xfffd3b84>

00044904 <_cleanup>:
   44904:	008001b4 	movhi	r2,6
   44908:	10a62004 	addi	r2,r2,-26496
   4490c:	11000017 	ldw	r4,0(r2)
   44910:	01400174 	movhi	r5,5
   44914:	29645404 	addi	r5,r5,-28336
   44918:	00452241 	jmpi	45224 <_fwalk>

0004491c <__sinit>:
   4491c:	20800e17 	ldw	r2,56(r4)
   44920:	10000126 	beq	r2,zero,44928 <__sinit+0xc>
   44924:	f800283a 	ret
   44928:	00445e81 	jmpi	445e8 <__sinit.part.1>

0004492c <__sfp_lock_acquire>:
   4492c:	f800283a 	ret

00044930 <__sfp_lock_release>:
   44930:	f800283a 	ret

00044934 <__sinit_lock_acquire>:
   44934:	f800283a 	ret

00044938 <__sinit_lock_release>:
   44938:	f800283a 	ret

0004493c <__fp_lock_all>:
   4493c:	008001b4 	movhi	r2,6
   44940:	10a62104 	addi	r2,r2,-26492
   44944:	11000017 	ldw	r4,0(r2)
   44948:	01400134 	movhi	r5,4
   4494c:	29517304 	addi	r5,r5,17868
   44950:	00452241 	jmpi	45224 <_fwalk>

00044954 <__fp_unlock_all>:
   44954:	008001b4 	movhi	r2,6
   44958:	10a62104 	addi	r2,r2,-26492
   4495c:	11000017 	ldw	r4,0(r2)
   44960:	01400134 	movhi	r5,4
   44964:	29517504 	addi	r5,r5,17876
   44968:	00452241 	jmpi	45224 <_fwalk>

0004496c <_malloc_trim_r>:
   4496c:	defffb04 	addi	sp,sp,-20
   44970:	dcc00315 	stw	r19,12(sp)
   44974:	04c001b4 	movhi	r19,6
   44978:	dc800215 	stw	r18,8(sp)
   4497c:	dc400115 	stw	r17,4(sp)
   44980:	dc000015 	stw	r16,0(sp)
   44984:	dfc00415 	stw	ra,16(sp)
   44988:	2821883a 	mov	r16,r5
   4498c:	9ce09904 	addi	r19,r19,-32156
   44990:	2025883a 	mov	r18,r4
   44994:	004d8200 	call	4d820 <__malloc_lock>
   44998:	98800217 	ldw	r2,8(r19)
   4499c:	14400117 	ldw	r17,4(r2)
   449a0:	00bfff04 	movi	r2,-4
   449a4:	88a2703a 	and	r17,r17,r2
   449a8:	8c21c83a 	sub	r16,r17,r16
   449ac:	8403fbc4 	addi	r16,r16,4079
   449b0:	8020d33a 	srli	r16,r16,12
   449b4:	0083ffc4 	movi	r2,4095
   449b8:	843fffc4 	addi	r16,r16,-1
   449bc:	8020933a 	slli	r16,r16,12
   449c0:	1400060e 	bge	r2,r16,449dc <_malloc_trim_r+0x70>
   449c4:	9009883a 	mov	r4,r18
   449c8:	000b883a 	mov	r5,zero
   449cc:	00478140 	call	47814 <_sbrk_r>
   449d0:	98c00217 	ldw	r3,8(r19)
   449d4:	1c47883a 	add	r3,r3,r17
   449d8:	10c00a26 	beq	r2,r3,44a04 <_malloc_trim_r+0x98>
   449dc:	9009883a 	mov	r4,r18
   449e0:	004d9400 	call	4d940 <__malloc_unlock>
   449e4:	0005883a 	mov	r2,zero
   449e8:	dfc00417 	ldw	ra,16(sp)
   449ec:	dcc00317 	ldw	r19,12(sp)
   449f0:	dc800217 	ldw	r18,8(sp)
   449f4:	dc400117 	ldw	r17,4(sp)
   449f8:	dc000017 	ldw	r16,0(sp)
   449fc:	dec00504 	addi	sp,sp,20
   44a00:	f800283a 	ret
   44a04:	9009883a 	mov	r4,r18
   44a08:	040bc83a 	sub	r5,zero,r16
   44a0c:	00478140 	call	47814 <_sbrk_r>
   44a10:	00ffffc4 	movi	r3,-1
   44a14:	10c00d26 	beq	r2,r3,44a4c <_malloc_trim_r+0xe0>
   44a18:	00c001b4 	movhi	r3,6
   44a1c:	18ed5804 	addi	r3,r3,-19104
   44a20:	18800017 	ldw	r2,0(r3)
   44a24:	99000217 	ldw	r4,8(r19)
   44a28:	8c23c83a 	sub	r17,r17,r16
   44a2c:	8c400054 	ori	r17,r17,1
   44a30:	1421c83a 	sub	r16,r2,r16
   44a34:	24400115 	stw	r17,4(r4)
   44a38:	9009883a 	mov	r4,r18
   44a3c:	1c000015 	stw	r16,0(r3)
   44a40:	004d9400 	call	4d940 <__malloc_unlock>
   44a44:	00800044 	movi	r2,1
   44a48:	003fe706 	br	449e8 <__alt_data_end+0xfffd3ca8>
   44a4c:	9009883a 	mov	r4,r18
   44a50:	000b883a 	mov	r5,zero
   44a54:	00478140 	call	47814 <_sbrk_r>
   44a58:	99000217 	ldw	r4,8(r19)
   44a5c:	014003c4 	movi	r5,15
   44a60:	1107c83a 	sub	r3,r2,r4
   44a64:	28ffdd0e 	bge	r5,r3,449dc <__alt_data_end+0xfffd3c9c>
   44a68:	014001b4 	movhi	r5,6
   44a6c:	29662304 	addi	r5,r5,-26484
   44a70:	29400017 	ldw	r5,0(r5)
   44a74:	18c00054 	ori	r3,r3,1
   44a78:	20c00115 	stw	r3,4(r4)
   44a7c:	00c001b4 	movhi	r3,6
   44a80:	1145c83a 	sub	r2,r2,r5
   44a84:	18ed5804 	addi	r3,r3,-19104
   44a88:	18800015 	stw	r2,0(r3)
   44a8c:	003fd306 	br	449dc <__alt_data_end+0xfffd3c9c>

00044a90 <_free_r>:
   44a90:	28004c26 	beq	r5,zero,44bc4 <_free_r+0x134>
   44a94:	defffd04 	addi	sp,sp,-12
   44a98:	dc400115 	stw	r17,4(sp)
   44a9c:	dc000015 	stw	r16,0(sp)
   44aa0:	2023883a 	mov	r17,r4
   44aa4:	2821883a 	mov	r16,r5
   44aa8:	dfc00215 	stw	ra,8(sp)
   44aac:	004d8200 	call	4d820 <__malloc_lock>
   44ab0:	813fff17 	ldw	r4,-4(r16)
   44ab4:	00bfff84 	movi	r2,-2
   44ab8:	024001b4 	movhi	r9,6
   44abc:	81bffe04 	addi	r6,r16,-8
   44ac0:	2084703a 	and	r2,r4,r2
   44ac4:	4a609904 	addi	r9,r9,-32156
   44ac8:	308b883a 	add	r5,r6,r2
   44acc:	2a000117 	ldw	r8,4(r5)
   44ad0:	49c00217 	ldw	r7,8(r9)
   44ad4:	00ffff04 	movi	r3,-4
   44ad8:	40c6703a 	and	r3,r8,r3
   44adc:	39405326 	beq	r7,r5,44c2c <_free_r+0x19c>
   44ae0:	28c00115 	stw	r3,4(r5)
   44ae4:	2100004c 	andi	r4,r4,1
   44ae8:	2000091e 	bne	r4,zero,44b10 <_free_r+0x80>
   44aec:	81fffe17 	ldw	r7,-8(r16)
   44af0:	4a000204 	addi	r8,r9,8
   44af4:	31cdc83a 	sub	r6,r6,r7
   44af8:	31000217 	ldw	r4,8(r6)
   44afc:	11c5883a 	add	r2,r2,r7
   44b00:	22006126 	beq	r4,r8,44c88 <_free_r+0x1f8>
   44b04:	31c00317 	ldw	r7,12(r6)
   44b08:	21c00315 	stw	r7,12(r4)
   44b0c:	39000215 	stw	r4,8(r7)
   44b10:	28c9883a 	add	r4,r5,r3
   44b14:	21c00117 	ldw	r7,4(r4)
   44b18:	39c0004c 	andi	r7,r7,1
   44b1c:	38000d1e 	bne	r7,zero,44b54 <_free_r+0xc4>
   44b20:	29000217 	ldw	r4,8(r5)
   44b24:	10c5883a 	add	r2,r2,r3
   44b28:	00c001b4 	movhi	r3,6
   44b2c:	18e09b04 	addi	r3,r3,-32148
   44b30:	20c07526 	beq	r4,r3,44d08 <_free_r+0x278>
   44b34:	29c00317 	ldw	r7,12(r5)
   44b38:	11400054 	ori	r5,r2,1
   44b3c:	3087883a 	add	r3,r6,r2
   44b40:	21c00315 	stw	r7,12(r4)
   44b44:	39000215 	stw	r4,8(r7)
   44b48:	31400115 	stw	r5,4(r6)
   44b4c:	18800015 	stw	r2,0(r3)
   44b50:	00000406 	br	44b64 <_free_r+0xd4>
   44b54:	10c00054 	ori	r3,r2,1
   44b58:	30c00115 	stw	r3,4(r6)
   44b5c:	3087883a 	add	r3,r6,r2
   44b60:	18800015 	stw	r2,0(r3)
   44b64:	00c07fc4 	movi	r3,511
   44b68:	18801736 	bltu	r3,r2,44bc8 <_free_r+0x138>
   44b6c:	1004d0fa 	srli	r2,r2,3
   44b70:	01400044 	movi	r5,1
   44b74:	49000117 	ldw	r4,4(r9)
   44b78:	1087883a 	add	r3,r2,r2
   44b7c:	18c7883a 	add	r3,r3,r3
   44b80:	1005d0ba 	srai	r2,r2,2
   44b84:	18c7883a 	add	r3,r3,r3
   44b88:	1a47883a 	add	r3,r3,r9
   44b8c:	19c00217 	ldw	r7,8(r3)
   44b90:	2884983a 	sll	r2,r5,r2
   44b94:	30c00315 	stw	r3,12(r6)
   44b98:	31c00215 	stw	r7,8(r6)
   44b9c:	1104b03a 	or	r2,r2,r4
   44ba0:	19800215 	stw	r6,8(r3)
   44ba4:	48800115 	stw	r2,4(r9)
   44ba8:	39800315 	stw	r6,12(r7)
   44bac:	8809883a 	mov	r4,r17
   44bb0:	dfc00217 	ldw	ra,8(sp)
   44bb4:	dc400117 	ldw	r17,4(sp)
   44bb8:	dc000017 	ldw	r16,0(sp)
   44bbc:	dec00304 	addi	sp,sp,12
   44bc0:	004d9401 	jmpi	4d940 <__malloc_unlock>
   44bc4:	f800283a 	ret
   44bc8:	1006d27a 	srli	r3,r2,9
   44bcc:	01000104 	movi	r4,4
   44bd0:	20c04036 	bltu	r4,r3,44cd4 <_free_r+0x244>
   44bd4:	1006d1ba 	srli	r3,r2,6
   44bd8:	19400e04 	addi	r5,r3,56
   44bdc:	2947883a 	add	r3,r5,r5
   44be0:	18c7883a 	add	r3,r3,r3
   44be4:	18c7883a 	add	r3,r3,r3
   44be8:	1a49883a 	add	r4,r3,r9
   44bec:	20c00217 	ldw	r3,8(r4)
   44bf0:	01c001b4 	movhi	r7,6
   44bf4:	39e09904 	addi	r7,r7,-32156
   44bf8:	19003b26 	beq	r3,r4,44ce8 <_free_r+0x258>
   44bfc:	01ffff04 	movi	r7,-4
   44c00:	19400117 	ldw	r5,4(r3)
   44c04:	29ca703a 	and	r5,r5,r7
   44c08:	1140022e 	bgeu	r2,r5,44c14 <_free_r+0x184>
   44c0c:	18c00217 	ldw	r3,8(r3)
   44c10:	20fffb1e 	bne	r4,r3,44c00 <__alt_data_end+0xfffd3ec0>
   44c14:	18800317 	ldw	r2,12(r3)
   44c18:	30800315 	stw	r2,12(r6)
   44c1c:	30c00215 	stw	r3,8(r6)
   44c20:	11800215 	stw	r6,8(r2)
   44c24:	19800315 	stw	r6,12(r3)
   44c28:	003fe006 	br	44bac <__alt_data_end+0xfffd3e6c>
   44c2c:	2100004c 	andi	r4,r4,1
   44c30:	1885883a 	add	r2,r3,r2
   44c34:	2000071e 	bne	r4,zero,44c54 <_free_r+0x1c4>
   44c38:	817ffe17 	ldw	r5,-8(r16)
   44c3c:	314dc83a 	sub	r6,r6,r5
   44c40:	30c00317 	ldw	r3,12(r6)
   44c44:	31000217 	ldw	r4,8(r6)
   44c48:	1145883a 	add	r2,r2,r5
   44c4c:	20c00315 	stw	r3,12(r4)
   44c50:	19000215 	stw	r4,8(r3)
   44c54:	10c00054 	ori	r3,r2,1
   44c58:	30c00115 	stw	r3,4(r6)
   44c5c:	00c001b4 	movhi	r3,6
   44c60:	18e62404 	addi	r3,r3,-26480
   44c64:	18c00017 	ldw	r3,0(r3)
   44c68:	49800215 	stw	r6,8(r9)
   44c6c:	10ffcf36 	bltu	r2,r3,44bac <__alt_data_end+0xfffd3e6c>
   44c70:	008001b4 	movhi	r2,6
   44c74:	10ad3704 	addi	r2,r2,-19236
   44c78:	11400017 	ldw	r5,0(r2)
   44c7c:	8809883a 	mov	r4,r17
   44c80:	004496c0 	call	4496c <_malloc_trim_r>
   44c84:	003fc906 	br	44bac <__alt_data_end+0xfffd3e6c>
   44c88:	28c9883a 	add	r4,r5,r3
   44c8c:	21000117 	ldw	r4,4(r4)
   44c90:	2100004c 	andi	r4,r4,1
   44c94:	20000a1e 	bne	r4,zero,44cc0 <_free_r+0x230>
   44c98:	29000317 	ldw	r4,12(r5)
   44c9c:	29400217 	ldw	r5,8(r5)
   44ca0:	10c5883a 	add	r2,r2,r3
   44ca4:	10c00054 	ori	r3,r2,1
   44ca8:	29000315 	stw	r4,12(r5)
   44cac:	21400215 	stw	r5,8(r4)
   44cb0:	30c00115 	stw	r3,4(r6)
   44cb4:	308d883a 	add	r6,r6,r2
   44cb8:	30800015 	stw	r2,0(r6)
   44cbc:	003fbb06 	br	44bac <__alt_data_end+0xfffd3e6c>
   44cc0:	10c00054 	ori	r3,r2,1
   44cc4:	30c00115 	stw	r3,4(r6)
   44cc8:	308d883a 	add	r6,r6,r2
   44ccc:	30800015 	stw	r2,0(r6)
   44cd0:	003fb606 	br	44bac <__alt_data_end+0xfffd3e6c>
   44cd4:	01000504 	movi	r4,20
   44cd8:	20c01436 	bltu	r4,r3,44d2c <_free_r+0x29c>
   44cdc:	194016c4 	addi	r5,r3,91
   44ce0:	2947883a 	add	r3,r5,r5
   44ce4:	003fbe06 	br	44be0 <__alt_data_end+0xfffd3ea0>
   44ce8:	280bd0ba 	srai	r5,r5,2
   44cec:	00800044 	movi	r2,1
   44cf0:	39000117 	ldw	r4,4(r7)
   44cf4:	114a983a 	sll	r5,r2,r5
   44cf8:	1805883a 	mov	r2,r3
   44cfc:	2908b03a 	or	r4,r5,r4
   44d00:	39000115 	stw	r4,4(r7)
   44d04:	003fc406 	br	44c18 <__alt_data_end+0xfffd3ed8>
   44d08:	49800515 	stw	r6,20(r9)
   44d0c:	49800415 	stw	r6,16(r9)
   44d10:	10c00054 	ori	r3,r2,1
   44d14:	31000315 	stw	r4,12(r6)
   44d18:	31000215 	stw	r4,8(r6)
   44d1c:	30c00115 	stw	r3,4(r6)
   44d20:	308d883a 	add	r6,r6,r2
   44d24:	30800015 	stw	r2,0(r6)
   44d28:	003fa006 	br	44bac <__alt_data_end+0xfffd3e6c>
   44d2c:	01001504 	movi	r4,84
   44d30:	20c00436 	bltu	r4,r3,44d44 <_free_r+0x2b4>
   44d34:	1006d33a 	srli	r3,r2,12
   44d38:	19401b84 	addi	r5,r3,110
   44d3c:	2947883a 	add	r3,r5,r5
   44d40:	003fa706 	br	44be0 <__alt_data_end+0xfffd3ea0>
   44d44:	01005504 	movi	r4,340
   44d48:	20c00436 	bltu	r4,r3,44d5c <_free_r+0x2cc>
   44d4c:	1006d3fa 	srli	r3,r2,15
   44d50:	19401dc4 	addi	r5,r3,119
   44d54:	2947883a 	add	r3,r5,r5
   44d58:	003fa106 	br	44be0 <__alt_data_end+0xfffd3ea0>
   44d5c:	01015504 	movi	r4,1364
   44d60:	20c00436 	bltu	r4,r3,44d74 <_free_r+0x2e4>
   44d64:	1006d4ba 	srli	r3,r2,18
   44d68:	19401f04 	addi	r5,r3,124
   44d6c:	2947883a 	add	r3,r5,r5
   44d70:	003f9b06 	br	44be0 <__alt_data_end+0xfffd3ea0>
   44d74:	00c03f04 	movi	r3,252
   44d78:	01401f84 	movi	r5,126
   44d7c:	003f9806 	br	44be0 <__alt_data_end+0xfffd3ea0>

00044d80 <__sfvwrite_r>:
   44d80:	30800217 	ldw	r2,8(r6)
   44d84:	10004526 	beq	r2,zero,44e9c <__sfvwrite_r+0x11c>
   44d88:	28c0030b 	ldhu	r3,12(r5)
   44d8c:	defff404 	addi	sp,sp,-48
   44d90:	dd400715 	stw	r21,28(sp)
   44d94:	dcc00515 	stw	r19,20(sp)
   44d98:	dc000215 	stw	r16,8(sp)
   44d9c:	dfc00b15 	stw	ra,44(sp)
   44da0:	df000a15 	stw	fp,40(sp)
   44da4:	ddc00915 	stw	r23,36(sp)
   44da8:	dd800815 	stw	r22,32(sp)
   44dac:	dd000615 	stw	r20,24(sp)
   44db0:	dc800415 	stw	r18,16(sp)
   44db4:	dc400315 	stw	r17,12(sp)
   44db8:	1880020c 	andi	r2,r3,8
   44dbc:	2821883a 	mov	r16,r5
   44dc0:	202b883a 	mov	r21,r4
   44dc4:	3027883a 	mov	r19,r6
   44dc8:	10002526 	beq	r2,zero,44e60 <__sfvwrite_r+0xe0>
   44dcc:	28800417 	ldw	r2,16(r5)
   44dd0:	10002326 	beq	r2,zero,44e60 <__sfvwrite_r+0xe0>
   44dd4:	1880008c 	andi	r2,r3,2
   44dd8:	9c400017 	ldw	r17,0(r19)
   44ddc:	10003126 	beq	r2,zero,44ea4 <__sfvwrite_r+0x124>
   44de0:	0029883a 	mov	r20,zero
   44de4:	0025883a 	mov	r18,zero
   44de8:	05810004 	movi	r22,1024
   44dec:	a00d883a 	mov	r6,r20
   44df0:	a809883a 	mov	r4,r21
   44df4:	90002526 	beq	r18,zero,44e8c <__sfvwrite_r+0x10c>
   44df8:	900f883a 	mov	r7,r18
   44dfc:	81400717 	ldw	r5,28(r16)
   44e00:	b480012e 	bgeu	r22,r18,44e08 <__sfvwrite_r+0x88>
   44e04:	01c10004 	movi	r7,1024
   44e08:	80800917 	ldw	r2,36(r16)
   44e0c:	103ee83a 	callr	r2
   44e10:	0080510e 	bge	zero,r2,44f58 <__sfvwrite_r+0x1d8>
   44e14:	98c00217 	ldw	r3,8(r19)
   44e18:	a0a9883a 	add	r20,r20,r2
   44e1c:	90a5c83a 	sub	r18,r18,r2
   44e20:	1885c83a 	sub	r2,r3,r2
   44e24:	98800215 	stw	r2,8(r19)
   44e28:	103ff01e 	bne	r2,zero,44dec <__alt_data_end+0xfffd40ac>
   44e2c:	0005883a 	mov	r2,zero
   44e30:	dfc00b17 	ldw	ra,44(sp)
   44e34:	df000a17 	ldw	fp,40(sp)
   44e38:	ddc00917 	ldw	r23,36(sp)
   44e3c:	dd800817 	ldw	r22,32(sp)
   44e40:	dd400717 	ldw	r21,28(sp)
   44e44:	dd000617 	ldw	r20,24(sp)
   44e48:	dcc00517 	ldw	r19,20(sp)
   44e4c:	dc800417 	ldw	r18,16(sp)
   44e50:	dc400317 	ldw	r17,12(sp)
   44e54:	dc000217 	ldw	r16,8(sp)
   44e58:	dec00c04 	addi	sp,sp,48
   44e5c:	f800283a 	ret
   44e60:	a809883a 	mov	r4,r21
   44e64:	800b883a 	mov	r5,r16
   44e68:	004291c0 	call	4291c <__swsetup_r>
   44e6c:	80c0030b 	ldhu	r3,12(r16)
   44e70:	103fd826 	beq	r2,zero,44dd4 <__alt_data_end+0xfffd4094>
   44e74:	18c01014 	ori	r3,r3,64
   44e78:	80c0030d 	sth	r3,12(r16)
   44e7c:	00c00244 	movi	r3,9
   44e80:	00bfffc4 	movi	r2,-1
   44e84:	a8c00015 	stw	r3,0(r21)
   44e88:	003fe906 	br	44e30 <__alt_data_end+0xfffd40f0>
   44e8c:	8d000017 	ldw	r20,0(r17)
   44e90:	8c800117 	ldw	r18,4(r17)
   44e94:	8c400204 	addi	r17,r17,8
   44e98:	003fd406 	br	44dec <__alt_data_end+0xfffd40ac>
   44e9c:	0005883a 	mov	r2,zero
   44ea0:	f800283a 	ret
   44ea4:	1880004c 	andi	r2,r3,1
   44ea8:	1000301e 	bne	r2,zero,44f6c <__sfvwrite_r+0x1ec>
   44eac:	002f883a 	mov	r23,zero
   44eb0:	0025883a 	mov	r18,zero
   44eb4:	90001c26 	beq	r18,zero,44f28 <__sfvwrite_r+0x1a8>
   44eb8:	1880800c 	andi	r2,r3,512
   44ebc:	85000217 	ldw	r20,8(r16)
   44ec0:	10006c26 	beq	r2,zero,45074 <__sfvwrite_r+0x2f4>
   44ec4:	a02d883a 	mov	r22,r20
   44ec8:	95008536 	bltu	r18,r20,450e0 <__sfvwrite_r+0x360>
   44ecc:	1881200c 	andi	r2,r3,1152
   44ed0:	10009d1e 	bne	r2,zero,45148 <__sfvwrite_r+0x3c8>
   44ed4:	81000017 	ldw	r4,0(r16)
   44ed8:	a039883a 	mov	fp,r20
   44edc:	9029883a 	mov	r20,r18
   44ee0:	b80b883a 	mov	r5,r23
   44ee4:	b00d883a 	mov	r6,r22
   44ee8:	0045ff40 	call	45ff4 <memmove>
   44eec:	80c00217 	ldw	r3,8(r16)
   44ef0:	81000017 	ldw	r4,0(r16)
   44ef4:	9005883a 	mov	r2,r18
   44ef8:	1f39c83a 	sub	fp,r3,fp
   44efc:	258f883a 	add	r7,r4,r22
   44f00:	87000215 	stw	fp,8(r16)
   44f04:	81c00015 	stw	r7,0(r16)
   44f08:	98c00217 	ldw	r3,8(r19)
   44f0c:	b8af883a 	add	r23,r23,r2
   44f10:	90a5c83a 	sub	r18,r18,r2
   44f14:	1d05c83a 	sub	r2,r3,r20
   44f18:	98800215 	stw	r2,8(r19)
   44f1c:	103fc326 	beq	r2,zero,44e2c <__alt_data_end+0xfffd40ec>
   44f20:	80c0030b 	ldhu	r3,12(r16)
   44f24:	903fe41e 	bne	r18,zero,44eb8 <__alt_data_end+0xfffd4178>
   44f28:	8dc00017 	ldw	r23,0(r17)
   44f2c:	8c800117 	ldw	r18,4(r17)
   44f30:	8c400204 	addi	r17,r17,8
   44f34:	003fdf06 	br	44eb4 <__alt_data_end+0xfffd4174>
   44f38:	00472000 	call	47200 <_realloc_r>
   44f3c:	102d883a 	mov	r22,r2
   44f40:	1000a01e 	bne	r2,zero,451c4 <__sfvwrite_r+0x444>
   44f44:	81400417 	ldw	r5,16(r16)
   44f48:	a809883a 	mov	r4,r21
   44f4c:	0044a900 	call	44a90 <_free_r>
   44f50:	00800304 	movi	r2,12
   44f54:	a8800015 	stw	r2,0(r21)
   44f58:	80c0030b 	ldhu	r3,12(r16)
   44f5c:	00bfffc4 	movi	r2,-1
   44f60:	18c01014 	ori	r3,r3,64
   44f64:	80c0030d 	sth	r3,12(r16)
   44f68:	003fb106 	br	44e30 <__alt_data_end+0xfffd40f0>
   44f6c:	0029883a 	mov	r20,zero
   44f70:	0011883a 	mov	r8,zero
   44f74:	0039883a 	mov	fp,zero
   44f78:	0025883a 	mov	r18,zero
   44f7c:	90001f26 	beq	r18,zero,44ffc <__sfvwrite_r+0x27c>
   44f80:	40006826 	beq	r8,zero,45124 <__sfvwrite_r+0x3a4>
   44f84:	a02f883a 	mov	r23,r20
   44f88:	9500012e 	bgeu	r18,r20,44f90 <__sfvwrite_r+0x210>
   44f8c:	902f883a 	mov	r23,r18
   44f90:	81000017 	ldw	r4,0(r16)
   44f94:	80800417 	ldw	r2,16(r16)
   44f98:	b82d883a 	mov	r22,r23
   44f9c:	81800217 	ldw	r6,8(r16)
   44fa0:	81c00517 	ldw	r7,20(r16)
   44fa4:	1100022e 	bgeu	r2,r4,44fb0 <__sfvwrite_r+0x230>
   44fa8:	31c7883a 	add	r3,r6,r7
   44fac:	1dc01816 	blt	r3,r23,45010 <__sfvwrite_r+0x290>
   44fb0:	b9c03f16 	blt	r23,r7,450b0 <__sfvwrite_r+0x330>
   44fb4:	80800917 	ldw	r2,36(r16)
   44fb8:	81400717 	ldw	r5,28(r16)
   44fbc:	a809883a 	mov	r4,r21
   44fc0:	da000115 	stw	r8,4(sp)
   44fc4:	e00d883a 	mov	r6,fp
   44fc8:	103ee83a 	callr	r2
   44fcc:	102d883a 	mov	r22,r2
   44fd0:	da000117 	ldw	r8,4(sp)
   44fd4:	00bfe00e 	bge	zero,r2,44f58 <__alt_data_end+0xfffd4218>
   44fd8:	a5a9c83a 	sub	r20,r20,r22
   44fdc:	a0001f26 	beq	r20,zero,4505c <__sfvwrite_r+0x2dc>
   44fe0:	98800217 	ldw	r2,8(r19)
   44fe4:	e5b9883a 	add	fp,fp,r22
   44fe8:	95a5c83a 	sub	r18,r18,r22
   44fec:	15adc83a 	sub	r22,r2,r22
   44ff0:	9d800215 	stw	r22,8(r19)
   44ff4:	b03f8d26 	beq	r22,zero,44e2c <__alt_data_end+0xfffd40ec>
   44ff8:	903fe11e 	bne	r18,zero,44f80 <__alt_data_end+0xfffd4240>
   44ffc:	8f000017 	ldw	fp,0(r17)
   45000:	8c800117 	ldw	r18,4(r17)
   45004:	0011883a 	mov	r8,zero
   45008:	8c400204 	addi	r17,r17,8
   4500c:	003fdb06 	br	44f7c <__alt_data_end+0xfffd423c>
   45010:	180d883a 	mov	r6,r3
   45014:	e00b883a 	mov	r5,fp
   45018:	da000115 	stw	r8,4(sp)
   4501c:	d8c00015 	stw	r3,0(sp)
   45020:	0045ff40 	call	45ff4 <memmove>
   45024:	d8c00017 	ldw	r3,0(sp)
   45028:	80800017 	ldw	r2,0(r16)
   4502c:	a809883a 	mov	r4,r21
   45030:	800b883a 	mov	r5,r16
   45034:	10c5883a 	add	r2,r2,r3
   45038:	80800015 	stw	r2,0(r16)
   4503c:	d8c00015 	stw	r3,0(sp)
   45040:	00443740 	call	44374 <_fflush_r>
   45044:	d8c00017 	ldw	r3,0(sp)
   45048:	da000117 	ldw	r8,4(sp)
   4504c:	103fc21e 	bne	r2,zero,44f58 <__alt_data_end+0xfffd4218>
   45050:	182d883a 	mov	r22,r3
   45054:	a5a9c83a 	sub	r20,r20,r22
   45058:	a03fe11e 	bne	r20,zero,44fe0 <__alt_data_end+0xfffd42a0>
   4505c:	a809883a 	mov	r4,r21
   45060:	800b883a 	mov	r5,r16
   45064:	00443740 	call	44374 <_fflush_r>
   45068:	103fbb1e 	bne	r2,zero,44f58 <__alt_data_end+0xfffd4218>
   4506c:	0011883a 	mov	r8,zero
   45070:	003fdb06 	br	44fe0 <__alt_data_end+0xfffd42a0>
   45074:	81000017 	ldw	r4,0(r16)
   45078:	80800417 	ldw	r2,16(r16)
   4507c:	1100012e 	bgeu	r2,r4,45084 <__sfvwrite_r+0x304>
   45080:	a4805a36 	bltu	r20,r18,451ec <__sfvwrite_r+0x46c>
   45084:	81c00517 	ldw	r7,20(r16)
   45088:	91c01a36 	bltu	r18,r7,450f4 <__sfvwrite_r+0x374>
   4508c:	80800917 	ldw	r2,36(r16)
   45090:	81400717 	ldw	r5,28(r16)
   45094:	a809883a 	mov	r4,r21
   45098:	b80d883a 	mov	r6,r23
   4509c:	103ee83a 	callr	r2
   450a0:	1029883a 	mov	r20,r2
   450a4:	00bfac0e 	bge	zero,r2,44f58 <__alt_data_end+0xfffd4218>
   450a8:	a005883a 	mov	r2,r20
   450ac:	003f9606 	br	44f08 <__alt_data_end+0xfffd41c8>
   450b0:	b80d883a 	mov	r6,r23
   450b4:	e00b883a 	mov	r5,fp
   450b8:	da000115 	stw	r8,4(sp)
   450bc:	0045ff40 	call	45ff4 <memmove>
   450c0:	80800217 	ldw	r2,8(r16)
   450c4:	80c00017 	ldw	r3,0(r16)
   450c8:	da000117 	ldw	r8,4(sp)
   450cc:	15c5c83a 	sub	r2,r2,r23
   450d0:	1def883a 	add	r23,r3,r23
   450d4:	80800215 	stw	r2,8(r16)
   450d8:	85c00015 	stw	r23,0(r16)
   450dc:	003fbe06 	br	44fd8 <__alt_data_end+0xfffd4298>
   450e0:	81000017 	ldw	r4,0(r16)
   450e4:	9039883a 	mov	fp,r18
   450e8:	9029883a 	mov	r20,r18
   450ec:	902d883a 	mov	r22,r18
   450f0:	003f7b06 	br	44ee0 <__alt_data_end+0xfffd41a0>
   450f4:	b80b883a 	mov	r5,r23
   450f8:	900d883a 	mov	r6,r18
   450fc:	0045ff40 	call	45ff4 <memmove>
   45100:	80c00217 	ldw	r3,8(r16)
   45104:	80800017 	ldw	r2,0(r16)
   45108:	9029883a 	mov	r20,r18
   4510c:	1c87c83a 	sub	r3,r3,r18
   45110:	1485883a 	add	r2,r2,r18
   45114:	80800015 	stw	r2,0(r16)
   45118:	80c00215 	stw	r3,8(r16)
   4511c:	9005883a 	mov	r2,r18
   45120:	003f7906 	br	44f08 <__alt_data_end+0xfffd41c8>
   45124:	e009883a 	mov	r4,fp
   45128:	01400284 	movi	r5,10
   4512c:	900d883a 	mov	r6,r18
   45130:	0045dd40 	call	45dd4 <memchr>
   45134:	10003826 	beq	r2,zero,45218 <__sfvwrite_r+0x498>
   45138:	10800044 	addi	r2,r2,1
   4513c:	1729c83a 	sub	r20,r2,fp
   45140:	02000044 	movi	r8,1
   45144:	003f8f06 	br	44f84 <__alt_data_end+0xfffd4244>
   45148:	80800517 	ldw	r2,20(r16)
   4514c:	81400417 	ldw	r5,16(r16)
   45150:	87000017 	ldw	fp,0(r16)
   45154:	10a9883a 	add	r20,r2,r2
   45158:	a085883a 	add	r2,r20,r2
   4515c:	1028d7fa 	srli	r20,r2,31
   45160:	e179c83a 	sub	fp,fp,r5
   45164:	e1000044 	addi	r4,fp,1
   45168:	a085883a 	add	r2,r20,r2
   4516c:	1029d07a 	srai	r20,r2,1
   45170:	2485883a 	add	r2,r4,r18
   45174:	a00d883a 	mov	r6,r20
   45178:	a080022e 	bgeu	r20,r2,45184 <__sfvwrite_r+0x404>
   4517c:	1029883a 	mov	r20,r2
   45180:	100d883a 	mov	r6,r2
   45184:	18c1000c 	andi	r3,r3,1024
   45188:	a809883a 	mov	r4,r21
   4518c:	183f6a26 	beq	r3,zero,44f38 <__alt_data_end+0xfffd41f8>
   45190:	300b883a 	mov	r5,r6
   45194:	004562c0 	call	4562c <_malloc_r>
   45198:	102d883a 	mov	r22,r2
   4519c:	103f6c26 	beq	r2,zero,44f50 <__alt_data_end+0xfffd4210>
   451a0:	81400417 	ldw	r5,16(r16)
   451a4:	1009883a 	mov	r4,r2
   451a8:	e00d883a 	mov	r6,fp
   451ac:	0045ebc0 	call	45ebc <memcpy>
   451b0:	8080030b 	ldhu	r2,12(r16)
   451b4:	00fedfc4 	movi	r3,-1153
   451b8:	10c4703a 	and	r2,r2,r3
   451bc:	10802014 	ori	r2,r2,128
   451c0:	8080030d 	sth	r2,12(r16)
   451c4:	b709883a 	add	r4,r22,fp
   451c8:	a707c83a 	sub	r3,r20,fp
   451cc:	85800415 	stw	r22,16(r16)
   451d0:	85000515 	stw	r20,20(r16)
   451d4:	81000015 	stw	r4,0(r16)
   451d8:	9039883a 	mov	fp,r18
   451dc:	80c00215 	stw	r3,8(r16)
   451e0:	9029883a 	mov	r20,r18
   451e4:	902d883a 	mov	r22,r18
   451e8:	003f3d06 	br	44ee0 <__alt_data_end+0xfffd41a0>
   451ec:	b80b883a 	mov	r5,r23
   451f0:	a00d883a 	mov	r6,r20
   451f4:	0045ff40 	call	45ff4 <memmove>
   451f8:	80800017 	ldw	r2,0(r16)
   451fc:	a809883a 	mov	r4,r21
   45200:	800b883a 	mov	r5,r16
   45204:	1505883a 	add	r2,r2,r20
   45208:	80800015 	stw	r2,0(r16)
   4520c:	00443740 	call	44374 <_fflush_r>
   45210:	103fa526 	beq	r2,zero,450a8 <__alt_data_end+0xfffd4368>
   45214:	003f5006 	br	44f58 <__alt_data_end+0xfffd4218>
   45218:	95000044 	addi	r20,r18,1
   4521c:	02000044 	movi	r8,1
   45220:	003f5806 	br	44f84 <__alt_data_end+0xfffd4244>

00045224 <_fwalk>:
   45224:	defff804 	addi	sp,sp,-32
   45228:	dd400515 	stw	r21,20(sp)
   4522c:	2540b804 	addi	r21,r4,736
   45230:	dd800615 	stw	r22,24(sp)
   45234:	dd000415 	stw	r20,16(sp)
   45238:	dfc00715 	stw	ra,28(sp)
   4523c:	dcc00315 	stw	r19,12(sp)
   45240:	dc800215 	stw	r18,8(sp)
   45244:	dc400115 	stw	r17,4(sp)
   45248:	dc000015 	stw	r16,0(sp)
   4524c:	2829883a 	mov	r20,r5
   45250:	002d883a 	mov	r22,zero
   45254:	004492c0 	call	4492c <__sfp_lock_acquire>
   45258:	a8001426 	beq	r21,zero,452ac <_fwalk+0x88>
   4525c:	04ffffc4 	movi	r19,-1
   45260:	ac400117 	ldw	r17,4(r21)
   45264:	ac800217 	ldw	r18,8(r21)
   45268:	8c7fffc4 	addi	r17,r17,-1
   4526c:	88000d16 	blt	r17,zero,452a4 <_fwalk+0x80>
   45270:	94000304 	addi	r16,r18,12
   45274:	94800384 	addi	r18,r18,14
   45278:	80c0000f 	ldh	r3,0(r16)
   4527c:	8c7fffc4 	addi	r17,r17,-1
   45280:	813ffd04 	addi	r4,r16,-12
   45284:	18000426 	beq	r3,zero,45298 <_fwalk+0x74>
   45288:	90c0000f 	ldh	r3,0(r18)
   4528c:	1cc00226 	beq	r3,r19,45298 <_fwalk+0x74>
   45290:	a03ee83a 	callr	r20
   45294:	b0acb03a 	or	r22,r22,r2
   45298:	84001a04 	addi	r16,r16,104
   4529c:	94801a04 	addi	r18,r18,104
   452a0:	8cfff51e 	bne	r17,r19,45278 <__alt_data_end+0xfffd4538>
   452a4:	ad400017 	ldw	r21,0(r21)
   452a8:	a83fed1e 	bne	r21,zero,45260 <__alt_data_end+0xfffd4520>
   452ac:	00449300 	call	44930 <__sfp_lock_release>
   452b0:	b005883a 	mov	r2,r22
   452b4:	dfc00717 	ldw	ra,28(sp)
   452b8:	dd800617 	ldw	r22,24(sp)
   452bc:	dd400517 	ldw	r21,20(sp)
   452c0:	dd000417 	ldw	r20,16(sp)
   452c4:	dcc00317 	ldw	r19,12(sp)
   452c8:	dc800217 	ldw	r18,8(sp)
   452cc:	dc400117 	ldw	r17,4(sp)
   452d0:	dc000017 	ldw	r16,0(sp)
   452d4:	dec00804 	addi	sp,sp,32
   452d8:	f800283a 	ret

000452dc <_fwalk_reent>:
   452dc:	defff804 	addi	sp,sp,-32
   452e0:	dd400515 	stw	r21,20(sp)
   452e4:	2540b804 	addi	r21,r4,736
   452e8:	dd800615 	stw	r22,24(sp)
   452ec:	dd000415 	stw	r20,16(sp)
   452f0:	dcc00315 	stw	r19,12(sp)
   452f4:	dfc00715 	stw	ra,28(sp)
   452f8:	dc800215 	stw	r18,8(sp)
   452fc:	dc400115 	stw	r17,4(sp)
   45300:	dc000015 	stw	r16,0(sp)
   45304:	2027883a 	mov	r19,r4
   45308:	2829883a 	mov	r20,r5
   4530c:	002d883a 	mov	r22,zero
   45310:	004492c0 	call	4492c <__sfp_lock_acquire>
   45314:	a8001326 	beq	r21,zero,45364 <_fwalk_reent+0x88>
   45318:	04bfffc4 	movi	r18,-1
   4531c:	ac400117 	ldw	r17,4(r21)
   45320:	ac000217 	ldw	r16,8(r21)
   45324:	8c7fffc4 	addi	r17,r17,-1
   45328:	88000c16 	blt	r17,zero,4535c <_fwalk_reent+0x80>
   4532c:	84000304 	addi	r16,r16,12
   45330:	80c0000f 	ldh	r3,0(r16)
   45334:	8c7fffc4 	addi	r17,r17,-1
   45338:	817ffd04 	addi	r5,r16,-12
   4533c:	18000526 	beq	r3,zero,45354 <_fwalk_reent+0x78>
   45340:	80c0008f 	ldh	r3,2(r16)
   45344:	9809883a 	mov	r4,r19
   45348:	1c800226 	beq	r3,r18,45354 <_fwalk_reent+0x78>
   4534c:	a03ee83a 	callr	r20
   45350:	b0acb03a 	or	r22,r22,r2
   45354:	84001a04 	addi	r16,r16,104
   45358:	8cbff51e 	bne	r17,r18,45330 <__alt_data_end+0xfffd45f0>
   4535c:	ad400017 	ldw	r21,0(r21)
   45360:	a83fee1e 	bne	r21,zero,4531c <__alt_data_end+0xfffd45dc>
   45364:	00449300 	call	44930 <__sfp_lock_release>
   45368:	b005883a 	mov	r2,r22
   4536c:	dfc00717 	ldw	ra,28(sp)
   45370:	dd800617 	ldw	r22,24(sp)
   45374:	dd400517 	ldw	r21,20(sp)
   45378:	dd000417 	ldw	r20,16(sp)
   4537c:	dcc00317 	ldw	r19,12(sp)
   45380:	dc800217 	ldw	r18,8(sp)
   45384:	dc400117 	ldw	r17,4(sp)
   45388:	dc000017 	ldw	r16,0(sp)
   4538c:	dec00804 	addi	sp,sp,32
   45390:	f800283a 	ret

00045394 <_setlocale_r>:
   45394:	30001b26 	beq	r6,zero,45404 <_setlocale_r+0x70>
   45398:	01400174 	movhi	r5,5
   4539c:	defffe04 	addi	sp,sp,-8
   453a0:	295e8604 	addi	r5,r5,31256
   453a4:	3009883a 	mov	r4,r6
   453a8:	dc000015 	stw	r16,0(sp)
   453ac:	dfc00115 	stw	ra,4(sp)
   453b0:	3021883a 	mov	r16,r6
   453b4:	00479a40 	call	479a4 <strcmp>
   453b8:	1000061e 	bne	r2,zero,453d4 <_setlocale_r+0x40>
   453bc:	00800174 	movhi	r2,5
   453c0:	109e8504 	addi	r2,r2,31252
   453c4:	dfc00117 	ldw	ra,4(sp)
   453c8:	dc000017 	ldw	r16,0(sp)
   453cc:	dec00204 	addi	sp,sp,8
   453d0:	f800283a 	ret
   453d4:	01400174 	movhi	r5,5
   453d8:	295e8504 	addi	r5,r5,31252
   453dc:	8009883a 	mov	r4,r16
   453e0:	00479a40 	call	479a4 <strcmp>
   453e4:	103ff526 	beq	r2,zero,453bc <__alt_data_end+0xfffd467c>
   453e8:	01400174 	movhi	r5,5
   453ec:	295e7004 	addi	r5,r5,31168
   453f0:	8009883a 	mov	r4,r16
   453f4:	00479a40 	call	479a4 <strcmp>
   453f8:	103ff026 	beq	r2,zero,453bc <__alt_data_end+0xfffd467c>
   453fc:	0005883a 	mov	r2,zero
   45400:	003ff006 	br	453c4 <__alt_data_end+0xfffd4684>
   45404:	00800174 	movhi	r2,5
   45408:	109e8504 	addi	r2,r2,31252
   4540c:	f800283a 	ret

00045410 <__locale_charset>:
   45410:	008001b4 	movhi	r2,6
   45414:	10a08304 	addi	r2,r2,-32244
   45418:	f800283a 	ret

0004541c <__locale_mb_cur_max>:
   4541c:	008001b4 	movhi	r2,6
   45420:	10a62204 	addi	r2,r2,-26488
